Archive member included because of file (symbol)

/home/valentin/CodeSourcery/Sourcery_CodeBench_Lite_for_ARM_EABI/bin/../lib/gcc/arm-none-eabi/4.6.1/../../../../arm-none-eabi/lib/thumb2/libc.a(lib_a-memcmp.o)
                              ../FreeRTOS/Source/tasks.o (memcmp)
/home/valentin/CodeSourcery/Sourcery_CodeBench_Lite_for_ARM_EABI/bin/../lib/gcc/arm-none-eabi/4.6.1/../../../../arm-none-eabi/lib/thumb2/libc.a(lib_a-memcpy.o)
                              ../FreeRTOS/Source/queue.o (memcpy)
/home/valentin/CodeSourcery/Sourcery_CodeBench_Lite_for_ARM_EABI/bin/../lib/gcc/arm-none-eabi/4.6.1/../../../../arm-none-eabi/lib/thumb2/libc.a(lib_a-memset.o)
                              ../FreeRTOS/Source/tasks.o (memset)
/home/valentin/CodeSourcery/Sourcery_CodeBench_Lite_for_ARM_EABI/bin/../lib/gcc/arm-none-eabi/4.6.1/../../../../arm-none-eabi/lib/thumb2/libc.a(lib_a-strncpy.o)
                              ../FreeRTOS/Source/tasks.o (strncpy)

Memory Configuration

Name             Origin             Length             Attributes
FLASH            0x00000000         0x00080000         xr
SRAM             0x20000000         0x00010000         xrw
*default*        0x00000000         0xffffffff

Linker script and memory map

LOAD ./RTOSDemo/system_stm32f10x.o
LOAD ../FreeRTOS/Source/list.o
LOAD ../FreeRTOS/Source/timers.o
LOAD ../FreeRTOS/Source/queue.o
LOAD ../FreeRTOS/Source/tasks.o
LOAD ../FreeRTOS/Source/portable/GCC/ARM_CM3/port.o
LOAD ../FreeRTOS/Source/portable/MemMang/heap_2.o
LOAD ../MyARMLib/STM32/STM32F10x_StdPeriph_Driver/src/stm32f10x_gpio.o
LOAD ../MyARMLib/STM32/STM32F10x_StdPeriph_Driver/src/stm32f10x_rcc.o
LOAD ./RTOSDemo/main.o
START GROUP
LOAD /home/valentin/CodeSourcery/Sourcery_CodeBench_Lite_for_ARM_EABI/bin/../lib/gcc/arm-none-eabi/4.6.1/thumb2/libgcc.a
LOAD /home/valentin/CodeSourcery/Sourcery_CodeBench_Lite_for_ARM_EABI/bin/../lib/gcc/arm-none-eabi/4.6.1/../../../../arm-none-eabi/lib/thumb2/libc.a
END GROUP

.text           0x00000000     0x5d30
 *(.isr_vector)
 *(.text .text.* .gnu.linkonce.t.*)
 .text          0x00000000        0x0 ./RTOSDemo/system_stm32f10x.o
 .text.__NOP    0x00000000        0xc ./RTOSDemo/system_stm32f10x.o
 .text.__WFI    0x0000000c        0xc ./RTOSDemo/system_stm32f10x.o
 .text.__WFE    0x00000018        0xc ./RTOSDemo/system_stm32f10x.o
 .text.__SEV    0x00000024        0xc ./RTOSDemo/system_stm32f10x.o
 .text.__ISB    0x00000030       0x10 ./RTOSDemo/system_stm32f10x.o
 .text.__DSB    0x00000040       0x10 ./RTOSDemo/system_stm32f10x.o
 .text.__DMB    0x00000050       0x10 ./RTOSDemo/system_stm32f10x.o
 .text.__REV    0x00000060       0x1c ./RTOSDemo/system_stm32f10x.o
 .text.__REV16  0x0000007c       0x1c ./RTOSDemo/system_stm32f10x.o
 .text.__REVSH  0x00000098       0x1c ./RTOSDemo/system_stm32f10x.o
 .text.__RBIT   0x000000b4       0x20 ./RTOSDemo/system_stm32f10x.o
 .text.__LDREXB
                0x000000d4       0x20 ./RTOSDemo/system_stm32f10x.o
 .text.__LDREXH
                0x000000f4       0x20 ./RTOSDemo/system_stm32f10x.o
 .text.__LDREXW
                0x00000114       0x20 ./RTOSDemo/system_stm32f10x.o
 .text.__STREXB
                0x00000134       0x24 ./RTOSDemo/system_stm32f10x.o
 .text.__STREXH
                0x00000158       0x24 ./RTOSDemo/system_stm32f10x.o
 .text.__STREXW
                0x0000017c       0x24 ./RTOSDemo/system_stm32f10x.o
 .text.__CLREX  0x000001a0       0x10 ./RTOSDemo/system_stm32f10x.o
 .text.__CLZ    0x000001b0       0x20 ./RTOSDemo/system_stm32f10x.o
 .text.__enable_irq
                0x000001d0        0xc ./RTOSDemo/system_stm32f10x.o
 .text.__disable_irq
                0x000001dc        0xc ./RTOSDemo/system_stm32f10x.o
 .text.__get_CONTROL
                0x000001e8       0x1c ./RTOSDemo/system_stm32f10x.o
 .text.__set_CONTROL
                0x00000204       0x18 ./RTOSDemo/system_stm32f10x.o
 .text.__get_IPSR
                0x0000021c       0x1c ./RTOSDemo/system_stm32f10x.o
 .text.__get_APSR
                0x00000238       0x1c ./RTOSDemo/system_stm32f10x.o
 .text.__get_xPSR
                0x00000254       0x1c ./RTOSDemo/system_stm32f10x.o
 .text.__get_PSP
                0x00000270       0x14 ./RTOSDemo/system_stm32f10x.o
 .text.__set_PSP
                0x00000284       0x18 ./RTOSDemo/system_stm32f10x.o
 .text.__get_MSP
                0x0000029c       0x14 ./RTOSDemo/system_stm32f10x.o
 .text.__set_MSP
                0x000002b0       0x18 ./RTOSDemo/system_stm32f10x.o
 .text.__get_PRIMASK
                0x000002c8       0x1c ./RTOSDemo/system_stm32f10x.o
 .text.__set_PRIMASK
                0x000002e4       0x18 ./RTOSDemo/system_stm32f10x.o
 .text.__enable_fault_irq
                0x000002fc        0xc ./RTOSDemo/system_stm32f10x.o
 .text.__disable_fault_irq
                0x00000308        0xc ./RTOSDemo/system_stm32f10x.o
 .text.__get_BASEPRI
                0x00000314       0x1c ./RTOSDemo/system_stm32f10x.o
 .text.__set_BASEPRI
                0x00000330       0x18 ./RTOSDemo/system_stm32f10x.o
 .text.__get_FAULTMASK
                0x00000348       0x1c ./RTOSDemo/system_stm32f10x.o
 .text.__set_FAULTMASK
                0x00000364       0x18 ./RTOSDemo/system_stm32f10x.o
 .text.NVIC_SetPriorityGrouping
                0x0000037c       0x50 ./RTOSDemo/system_stm32f10x.o
 .text.NVIC_GetPriorityGrouping
                0x000003cc       0x20 ./RTOSDemo/system_stm32f10x.o
 .text.NVIC_EnableIRQ
                0x000003ec       0x38 ./RTOSDemo/system_stm32f10x.o
 .text.NVIC_DisableIRQ
                0x00000424       0x3c ./RTOSDemo/system_stm32f10x.o
 .text.NVIC_GetPendingIRQ
                0x00000460       0x4c ./RTOSDemo/system_stm32f10x.o
 .text.NVIC_SetPendingIRQ
                0x000004ac       0x3c ./RTOSDemo/system_stm32f10x.o
 .text.NVIC_ClearPendingIRQ
                0x000004e8       0x3c ./RTOSDemo/system_stm32f10x.o
 .text.NVIC_GetActive
                0x00000524       0x4c ./RTOSDemo/system_stm32f10x.o
 .text.NVIC_SetPriority
                0x00000570       0x5c ./RTOSDemo/system_stm32f10x.o
 .text.NVIC_GetPriority
                0x000005cc       0x58 ./RTOSDemo/system_stm32f10x.o
 .text.NVIC_EncodePriority
                0x00000624       0x78 ./RTOSDemo/system_stm32f10x.o
 .text.NVIC_DecodePriority
                0x0000069c       0x7c ./RTOSDemo/system_stm32f10x.o
 .text.NVIC_SystemReset
                0x00000718       0x30 ./RTOSDemo/system_stm32f10x.o
 .text.SysTick_Config
                0x00000748       0x64 ./RTOSDemo/system_stm32f10x.o
 .text.ITM_SendChar
                0x000007ac       0x64 ./RTOSDemo/system_stm32f10x.o
 .text.ITM_ReceiveChar
                0x00000810       0x50 ./RTOSDemo/system_stm32f10x.o
 .text.ITM_CheckChar
                0x00000860       0x2c ./RTOSDemo/system_stm32f10x.o
 .text.SystemInit
                0x0000088c       0xa8 ./RTOSDemo/system_stm32f10x.o
                0x0000088c                SystemInit
 .text.SystemCoreClockUpdate
                0x00000934      0x148 ./RTOSDemo/system_stm32f10x.o
                0x00000934                SystemCoreClockUpdate
 .text.SetSysClock
                0x00000a7c        0xc ./RTOSDemo/system_stm32f10x.o
 .text.SetSysClockTo72
                0x00000a88      0x1ac ./RTOSDemo/system_stm32f10x.o
 .text          0x00000c34        0x0 ../FreeRTOS/Source/list.o
 .text.vListInitialise
                0x00000c34       0x40 ../FreeRTOS/Source/list.o
                0x00000c34                vListInitialise
 .text.vListInitialiseItem
                0x00000c74       0x1c ../FreeRTOS/Source/list.o
                0x00000c74                vListInitialiseItem
 .text.vListInsertEnd
                0x00000c90       0x50 ../FreeRTOS/Source/list.o
                0x00000c90                vListInsertEnd
 .text.vListInsert
                0x00000ce0       0x74 ../FreeRTOS/Source/list.o
                0x00000ce0                vListInsert
 .text.vListRemove
                0x00000d54       0x54 ../FreeRTOS/Source/list.o
                0x00000d54                vListRemove
 .text          0x00000da8        0x0 ../FreeRTOS/Source/timers.o
 .text          0x00000da8        0x0 ../FreeRTOS/Source/queue.o
 .text.xQueueGenericReset
                0x00000da8       0xac ../FreeRTOS/Source/queue.o
                0x00000da8                xQueueGenericReset
 .text.xQueueGenericCreate
                0x00000e54       0x7c ../FreeRTOS/Source/queue.o
                0x00000e54                xQueueGenericCreate
 .text.xQueueCreateMutex
                0x00000ed0       0x98 ../FreeRTOS/Source/queue.o
                0x00000ed0                xQueueCreateMutex
 .text.xQueueGiveMutexRecursive
                0x00000f68       0x58 ../FreeRTOS/Source/queue.o
                0x00000f68                xQueueGiveMutexRecursive
 .text.xQueueTakeMutexRecursive
                0x00000fc0       0x5c ../FreeRTOS/Source/queue.o
                0x00000fc0                xQueueTakeMutexRecursive
 .text.xQueueCreateCountingSemaphore
                0x0000101c       0x34 ../FreeRTOS/Source/queue.o
                0x0000101c                xQueueCreateCountingSemaphore
 .text.xQueueGenericSend
                0x00001050      0x120 ../FreeRTOS/Source/queue.o
                0x00001050                xQueueGenericSend
 .text.xQueueGenericSendFromISR
                0x00001170       0x90 ../FreeRTOS/Source/queue.o
                0x00001170                xQueueGenericSendFromISR
 .text.xQueueGenericReceive
                0x00001200      0x188 ../FreeRTOS/Source/queue.o
                0x00001200                xQueueGenericReceive
 .text.xQueueReceiveFromISR
                0x00001388       0x94 ../FreeRTOS/Source/queue.o
                0x00001388                xQueueReceiveFromISR
 .text.uxQueueMessagesWaiting
                0x0000141c       0x24 ../FreeRTOS/Source/queue.o
                0x0000141c                uxQueueMessagesWaiting
 .text.uxQueueMessagesWaitingFromISR
                0x00001440       0x1c ../FreeRTOS/Source/queue.o
                0x00001440                uxQueueMessagesWaitingFromISR
 .text.vQueueDelete
                0x0000145c       0x20 ../FreeRTOS/Source/queue.o
                0x0000145c                vQueueDelete
 .text.prvCopyDataToQueue
                0x0000147c       0xc8 ../FreeRTOS/Source/queue.o
 .text.prvCopyDataFromQueue
                0x00001544       0x50 ../FreeRTOS/Source/queue.o
 .text.prvUnlockQueue
                0x00001594       0xa0 ../FreeRTOS/Source/queue.o
 .text.prvIsQueueEmpty
                0x00001634       0x2c ../FreeRTOS/Source/queue.o
 .text.xQueueIsQueueEmptyFromISR
                0x00001660       0x24 ../FreeRTOS/Source/queue.o
                0x00001660                xQueueIsQueueEmptyFromISR
 .text.prvIsQueueFull
                0x00001684       0x30 ../FreeRTOS/Source/queue.o
 .text.xQueueIsQueueFullFromISR
                0x000016b4       0x28 ../FreeRTOS/Source/queue.o
                0x000016b4                xQueueIsQueueFullFromISR
 .text          0x000016dc        0x0 ../FreeRTOS/Source/tasks.o
 .text.xTaskGenericCreate
                0x000016dc      0x1ac ../FreeRTOS/Source/tasks.o
                0x000016dc                xTaskGenericCreate
 .text.vTaskDelete
                0x00001888       0xc0 ../FreeRTOS/Source/tasks.o
                0x00001888                vTaskDelete
 .text.vTaskDelayUntil
                0x00001948       0xb0 ../FreeRTOS/Source/tasks.o
                0x00001948                vTaskDelayUntil
 .text.vTaskDelay
                0x000019f8       0x5c ../FreeRTOS/Source/tasks.o
                0x000019f8                vTaskDelay
 .text.uxTaskPriorityGet
                0x00001a54       0x38 ../FreeRTOS/Source/tasks.o
                0x00001a54                uxTaskPriorityGet
 .text.vTaskPrioritySet
                0x00001a8c      0x12c ../FreeRTOS/Source/tasks.o
                0x00001a8c                vTaskPrioritySet
 .text.vTaskSuspend
                0x00001bb8       0xc0 ../FreeRTOS/Source/tasks.o
                0x00001bb8                vTaskSuspend
 .text.xTaskIsTaskSuspended
                0x00001c78       0x50 ../FreeRTOS/Source/tasks.o
                0x00001c78                xTaskIsTaskSuspended
 .text.vTaskResume
                0x00001cc8       0xac ../FreeRTOS/Source/tasks.o
                0x00001cc8                vTaskResume
 .text.xTaskResumeFromISR
                0x00001d74       0xd4 ../FreeRTOS/Source/tasks.o
                0x00001d74                xTaskResumeFromISR
 .text.vTaskStartScheduler
                0x00001e48       0x74 ../FreeRTOS/Source/tasks.o
                0x00001e48                vTaskStartScheduler
 .text.vTaskEndScheduler
                0x00001ebc       0x20 ../FreeRTOS/Source/tasks.o
                0x00001ebc                vTaskEndScheduler
 .text.vTaskSuspendAll
                0x00001edc       0x24 ../FreeRTOS/Source/tasks.o
                0x00001edc                vTaskSuspendAll
 .text.xTaskResumeAll
                0x00001f00      0x154 ../FreeRTOS/Source/tasks.o
                0x00001f00                xTaskResumeAll
 .text.xTaskGetTickCount
                0x00002054       0x28 ../FreeRTOS/Source/tasks.o
                0x00002054                xTaskGetTickCount
 .text.xTaskGetTickCountFromISR
                0x0000207c       0x38 ../FreeRTOS/Source/tasks.o
                0x0000207c                xTaskGetTickCountFromISR
 .text.uxTaskGetNumberOfTasks
                0x000020b4       0x18 ../FreeRTOS/Source/tasks.o
                0x000020b4                uxTaskGetNumberOfTasks
 .text.vTaskIncrementTick
                0x000020cc      0x1cc ../FreeRTOS/Source/tasks.o
                0x000020cc                vTaskIncrementTick
 .text.vTaskSwitchContext
                0x00002298      0x148 ../FreeRTOS/Source/tasks.o
                0x00002298                vTaskSwitchContext
 .text.vTaskPlaceOnEventList
                0x000023e0       0x78 ../FreeRTOS/Source/tasks.o
                0x000023e0                vTaskPlaceOnEventList
 .text.xTaskRemoveFromEventList
                0x00002458       0xc4 ../FreeRTOS/Source/tasks.o
                0x00002458                xTaskRemoveFromEventList
 .text.vTaskSetTimeOutState
                0x0000251c       0x30 ../FreeRTOS/Source/tasks.o
                0x0000251c                vTaskSetTimeOutState
 .text.xTaskCheckForTimeOut
                0x0000254c       0xa4 ../FreeRTOS/Source/tasks.o
                0x0000254c                xTaskCheckForTimeOut
 .text.vTaskMissedYield
                0x000025f0       0x18 ../FreeRTOS/Source/tasks.o
                0x000025f0                vTaskMissedYield
 .text.prvIdleTask
                0x00002608       0x24 ../FreeRTOS/Source/tasks.o
 .text.prvInitialiseTCBVariables
                0x0000262c       0x78 ../FreeRTOS/Source/tasks.o
 .text.prvInitialiseTaskLists
                0x000026a4       0xa4 ../FreeRTOS/Source/tasks.o
 .text.prvCheckTasksWaitingTermination
                0x00002748       0x98 ../FreeRTOS/Source/tasks.o
 .text.prvAddCurrentTaskToDelayedList
                0x000027e0       0x8c ../FreeRTOS/Source/tasks.o
 .text.prvAllocateTCBAndStack
                0x0000286c       0x70 ../FreeRTOS/Source/tasks.o
 .text.prvDeleteTCB
                0x000028dc       0x20 ../FreeRTOS/Source/tasks.o
 .text.xTaskGetCurrentTaskHandle
                0x000028fc       0x20 ../FreeRTOS/Source/tasks.o
                0x000028fc                xTaskGetCurrentTaskHandle
 .text.vTaskPriorityInherit
                0x0000291c       0xd8 ../FreeRTOS/Source/tasks.o
                0x0000291c                vTaskPriorityInherit
 .text.vTaskPriorityDisinherit
                0x000029f4       0x90 ../FreeRTOS/Source/tasks.o
                0x000029f4                vTaskPriorityDisinherit
 .text          0x00002a84        0x0 ../FreeRTOS/Source/portable/GCC/ARM_CM3/port.o
 .text.pxPortInitialiseStack
                0x00002a84       0x60 ../FreeRTOS/Source/portable/GCC/ARM_CM3/port.o
                0x00002a84                pxPortInitialiseStack
 .text.SVC_Handler
                0x00002ae4       0x20 ../FreeRTOS/Source/portable/GCC/ARM_CM3/port.o
                0x00002ae4                SVC_Handler
 .text.vPortStartFirstTask
                0x00002b04       0x14 ../FreeRTOS/Source/portable/GCC/ARM_CM3/port.o
                0x00002b04                vPortStartFirstTask
 .text.xPortStartScheduler
                0x00002b18       0x54 ../FreeRTOS/Source/portable/GCC/ARM_CM3/port.o
                0x00002b18                xPortStartScheduler
 .text.vPortEndScheduler
                0x00002b6c        0xc ../FreeRTOS/Source/portable/GCC/ARM_CM3/port.o
                0x00002b6c                vPortEndScheduler
 .text.vPortYieldFromISR
                0x00002b78       0x18 ../FreeRTOS/Source/portable/GCC/ARM_CM3/port.o
                0x00002b78                vPortYieldFromISR
 .text.vPortEnterCritical
                0x00002b90       0x2c ../FreeRTOS/Source/portable/GCC/ARM_CM3/port.o
                0x00002b90                vPortEnterCritical
 .text.vPortExitCritical
                0x00002bbc       0x38 ../FreeRTOS/Source/portable/GCC/ARM_CM3/port.o
                0x00002bbc                vPortExitCritical
 .text.PendSV_Handler
                0x00002bf4       0x3c ../FreeRTOS/Source/portable/GCC/ARM_CM3/port.o
                0x00002bf4                PendSV_Handler
 .text.SysTick_Handler
                0x00002c30       0x38 ../FreeRTOS/Source/portable/GCC/ARM_CM3/port.o
                0x00002c30                SysTick_Handler
 .text.prvSetupTimerInterrupt
                0x00002c68       0x2c ../FreeRTOS/Source/portable/GCC/ARM_CM3/port.o
 .text          0x00002c94        0x0 ../FreeRTOS/Source/portable/MemMang/heap_2.o
 .text.pvPortMalloc
                0x00002c94      0x1b0 ../FreeRTOS/Source/portable/MemMang/heap_2.o
                0x00002c94                pvPortMalloc
 .text.vPortFree
                0x00002e44       0x88 ../FreeRTOS/Source/portable/MemMang/heap_2.o
                0x00002e44                vPortFree
 .text.xPortGetFreeHeapSize
                0x00002ecc       0x18 ../FreeRTOS/Source/portable/MemMang/heap_2.o
                0x00002ecc                xPortGetFreeHeapSize
 .text.vPortInitialiseBlocks
                0x00002ee4        0xc ../FreeRTOS/Source/portable/MemMang/heap_2.o
                0x00002ee4                vPortInitialiseBlocks
 .text          0x00002ef0        0x0 ../MyARMLib/STM32/STM32F10x_StdPeriph_Driver/src/stm32f10x_gpio.o
 .text.__NOP    0x00002ef0        0xc ../MyARMLib/STM32/STM32F10x_StdPeriph_Driver/src/stm32f10x_gpio.o
 .text.__WFI    0x00002efc        0xc ../MyARMLib/STM32/STM32F10x_StdPeriph_Driver/src/stm32f10x_gpio.o
 .text.__WFE    0x00002f08        0xc ../MyARMLib/STM32/STM32F10x_StdPeriph_Driver/src/stm32f10x_gpio.o
 .text.__SEV    0x00002f14        0xc ../MyARMLib/STM32/STM32F10x_StdPeriph_Driver/src/stm32f10x_gpio.o
 .text.__ISB    0x00002f20       0x10 ../MyARMLib/STM32/STM32F10x_StdPeriph_Driver/src/stm32f10x_gpio.o
 .text.__DSB    0x00002f30       0x10 ../MyARMLib/STM32/STM32F10x_StdPeriph_Driver/src/stm32f10x_gpio.o
 .text.__DMB    0x00002f40       0x10 ../MyARMLib/STM32/STM32F10x_StdPeriph_Driver/src/stm32f10x_gpio.o
 .text.__REV    0x00002f50       0x1c ../MyARMLib/STM32/STM32F10x_StdPeriph_Driver/src/stm32f10x_gpio.o
 .text.__REV16  0x00002f6c       0x1c ../MyARMLib/STM32/STM32F10x_StdPeriph_Driver/src/stm32f10x_gpio.o
 .text.__REVSH  0x00002f88       0x1c ../MyARMLib/STM32/STM32F10x_StdPeriph_Driver/src/stm32f10x_gpio.o
 .text.__RBIT   0x00002fa4       0x20 ../MyARMLib/STM32/STM32F10x_StdPeriph_Driver/src/stm32f10x_gpio.o
 .text.__LDREXB
                0x00002fc4       0x20 ../MyARMLib/STM32/STM32F10x_StdPeriph_Driver/src/stm32f10x_gpio.o
 .text.__LDREXH
                0x00002fe4       0x20 ../MyARMLib/STM32/STM32F10x_StdPeriph_Driver/src/stm32f10x_gpio.o
 .text.__LDREXW
                0x00003004       0x20 ../MyARMLib/STM32/STM32F10x_StdPeriph_Driver/src/stm32f10x_gpio.o
 .text.__STREXB
                0x00003024       0x24 ../MyARMLib/STM32/STM32F10x_StdPeriph_Driver/src/stm32f10x_gpio.o
 .text.__STREXH
                0x00003048       0x24 ../MyARMLib/STM32/STM32F10x_StdPeriph_Driver/src/stm32f10x_gpio.o
 .text.__STREXW
                0x0000306c       0x24 ../MyARMLib/STM32/STM32F10x_StdPeriph_Driver/src/stm32f10x_gpio.o
 .text.__CLREX  0x00003090       0x10 ../MyARMLib/STM32/STM32F10x_StdPeriph_Driver/src/stm32f10x_gpio.o
 .text.__CLZ    0x000030a0       0x20 ../MyARMLib/STM32/STM32F10x_StdPeriph_Driver/src/stm32f10x_gpio.o
 .text.__enable_irq
                0x000030c0        0xc ../MyARMLib/STM32/STM32F10x_StdPeriph_Driver/src/stm32f10x_gpio.o
 .text.__disable_irq
                0x000030cc        0xc ../MyARMLib/STM32/STM32F10x_StdPeriph_Driver/src/stm32f10x_gpio.o
 .text.__get_CONTROL
                0x000030d8       0x1c ../MyARMLib/STM32/STM32F10x_StdPeriph_Driver/src/stm32f10x_gpio.o
 .text.__set_CONTROL
                0x000030f4       0x18 ../MyARMLib/STM32/STM32F10x_StdPeriph_Driver/src/stm32f10x_gpio.o
 .text.__get_IPSR
                0x0000310c       0x1c ../MyARMLib/STM32/STM32F10x_StdPeriph_Driver/src/stm32f10x_gpio.o
 .text.__get_APSR
                0x00003128       0x1c ../MyARMLib/STM32/STM32F10x_StdPeriph_Driver/src/stm32f10x_gpio.o
 .text.__get_xPSR
                0x00003144       0x1c ../MyARMLib/STM32/STM32F10x_StdPeriph_Driver/src/stm32f10x_gpio.o
 .text.__get_PSP
                0x00003160       0x14 ../MyARMLib/STM32/STM32F10x_StdPeriph_Driver/src/stm32f10x_gpio.o
 .text.__set_PSP
                0x00003174       0x18 ../MyARMLib/STM32/STM32F10x_StdPeriph_Driver/src/stm32f10x_gpio.o
 .text.__get_MSP
                0x0000318c       0x14 ../MyARMLib/STM32/STM32F10x_StdPeriph_Driver/src/stm32f10x_gpio.o
 .text.__set_MSP
                0x000031a0       0x18 ../MyARMLib/STM32/STM32F10x_StdPeriph_Driver/src/stm32f10x_gpio.o
 .text.__get_PRIMASK
                0x000031b8       0x1c ../MyARMLib/STM32/STM32F10x_StdPeriph_Driver/src/stm32f10x_gpio.o
 .text.__set_PRIMASK
                0x000031d4       0x18 ../MyARMLib/STM32/STM32F10x_StdPeriph_Driver/src/stm32f10x_gpio.o
 .text.__enable_fault_irq
                0x000031ec        0xc ../MyARMLib/STM32/STM32F10x_StdPeriph_Driver/src/stm32f10x_gpio.o
 .text.__disable_fault_irq
                0x000031f8        0xc ../MyARMLib/STM32/STM32F10x_StdPeriph_Driver/src/stm32f10x_gpio.o
 .text.__get_BASEPRI
                0x00003204       0x1c ../MyARMLib/STM32/STM32F10x_StdPeriph_Driver/src/stm32f10x_gpio.o
 .text.__set_BASEPRI
                0x00003220       0x18 ../MyARMLib/STM32/STM32F10x_StdPeriph_Driver/src/stm32f10x_gpio.o
 .text.__get_FAULTMASK
                0x00003238       0x1c ../MyARMLib/STM32/STM32F10x_StdPeriph_Driver/src/stm32f10x_gpio.o
 .text.__set_FAULTMASK
                0x00003254       0x18 ../MyARMLib/STM32/STM32F10x_StdPeriph_Driver/src/stm32f10x_gpio.o
 .text.NVIC_SetPriorityGrouping
                0x0000326c       0x50 ../MyARMLib/STM32/STM32F10x_StdPeriph_Driver/src/stm32f10x_gpio.o
 .text.NVIC_GetPriorityGrouping
                0x000032bc       0x20 ../MyARMLib/STM32/STM32F10x_StdPeriph_Driver/src/stm32f10x_gpio.o
 .text.NVIC_EnableIRQ
                0x000032dc       0x38 ../MyARMLib/STM32/STM32F10x_StdPeriph_Driver/src/stm32f10x_gpio.o
 .text.NVIC_DisableIRQ
                0x00003314       0x3c ../MyARMLib/STM32/STM32F10x_StdPeriph_Driver/src/stm32f10x_gpio.o
 .text.NVIC_GetPendingIRQ
                0x00003350       0x4c ../MyARMLib/STM32/STM32F10x_StdPeriph_Driver/src/stm32f10x_gpio.o
 .text.NVIC_SetPendingIRQ
                0x0000339c       0x3c ../MyARMLib/STM32/STM32F10x_StdPeriph_Driver/src/stm32f10x_gpio.o
 .text.NVIC_ClearPendingIRQ
                0x000033d8       0x3c ../MyARMLib/STM32/STM32F10x_StdPeriph_Driver/src/stm32f10x_gpio.o
 .text.NVIC_GetActive
                0x00003414       0x4c ../MyARMLib/STM32/STM32F10x_StdPeriph_Driver/src/stm32f10x_gpio.o
 .text.NVIC_SetPriority
                0x00003460       0x5c ../MyARMLib/STM32/STM32F10x_StdPeriph_Driver/src/stm32f10x_gpio.o
 .text.NVIC_GetPriority
                0x000034bc       0x58 ../MyARMLib/STM32/STM32F10x_StdPeriph_Driver/src/stm32f10x_gpio.o
 .text.NVIC_EncodePriority
                0x00003514       0x78 ../MyARMLib/STM32/STM32F10x_StdPeriph_Driver/src/stm32f10x_gpio.o
 .text.NVIC_DecodePriority
                0x0000358c       0x7c ../MyARMLib/STM32/STM32F10x_StdPeriph_Driver/src/stm32f10x_gpio.o
 .text.NVIC_SystemReset
                0x00003608       0x30 ../MyARMLib/STM32/STM32F10x_StdPeriph_Driver/src/stm32f10x_gpio.o
 .text.SysTick_Config
                0x00003638       0x64 ../MyARMLib/STM32/STM32F10x_StdPeriph_Driver/src/stm32f10x_gpio.o
 .text.ITM_SendChar
                0x0000369c       0x64 ../MyARMLib/STM32/STM32F10x_StdPeriph_Driver/src/stm32f10x_gpio.o
 .text.ITM_ReceiveChar
                0x00003700       0x50 ../MyARMLib/STM32/STM32F10x_StdPeriph_Driver/src/stm32f10x_gpio.o
 .text.ITM_CheckChar
                0x00003750       0x2c ../MyARMLib/STM32/STM32F10x_StdPeriph_Driver/src/stm32f10x_gpio.o
 .text.GPIO_DeInit
                0x0000377c      0x128 ../MyARMLib/STM32/STM32F10x_StdPeriph_Driver/src/stm32f10x_gpio.o
                0x0000377c                GPIO_DeInit
 .text.GPIO_AFIODeInit
                0x000038a4       0x20 ../MyARMLib/STM32/STM32F10x_StdPeriph_Driver/src/stm32f10x_gpio.o
                0x000038a4                GPIO_AFIODeInit
 .text.GPIO_Init
                0x000038c4      0x1b0 ../MyARMLib/STM32/STM32F10x_StdPeriph_Driver/src/stm32f10x_gpio.o
                0x000038c4                GPIO_Init
 .text.GPIO_StructInit
                0x00003a74       0x2c ../MyARMLib/STM32/STM32F10x_StdPeriph_Driver/src/stm32f10x_gpio.o
                0x00003a74                GPIO_StructInit
 .text.GPIO_ReadInputDataBit
                0x00003aa0       0x3c ../MyARMLib/STM32/STM32F10x_StdPeriph_Driver/src/stm32f10x_gpio.o
                0x00003aa0                GPIO_ReadInputDataBit
 .text.GPIO_ReadInputData
                0x00003adc       0x1c ../MyARMLib/STM32/STM32F10x_StdPeriph_Driver/src/stm32f10x_gpio.o
                0x00003adc                GPIO_ReadInputData
 .text.GPIO_ReadOutputDataBit
                0x00003af8       0x3c ../MyARMLib/STM32/STM32F10x_StdPeriph_Driver/src/stm32f10x_gpio.o
                0x00003af8                GPIO_ReadOutputDataBit
 .text.GPIO_ReadOutputData
                0x00003b34       0x1c ../MyARMLib/STM32/STM32F10x_StdPeriph_Driver/src/stm32f10x_gpio.o
                0x00003b34                GPIO_ReadOutputData
 .text.GPIO_SetBits
                0x00003b50       0x1c ../MyARMLib/STM32/STM32F10x_StdPeriph_Driver/src/stm32f10x_gpio.o
                0x00003b50                GPIO_SetBits
 .text.GPIO_ResetBits
                0x00003b6c       0x1c ../MyARMLib/STM32/STM32F10x_StdPeriph_Driver/src/stm32f10x_gpio.o
                0x00003b6c                GPIO_ResetBits
 .text.GPIO_WriteBit
                0x00003b88       0x30 ../MyARMLib/STM32/STM32F10x_StdPeriph_Driver/src/stm32f10x_gpio.o
                0x00003b88                GPIO_WriteBit
 .text.GPIO_Write
                0x00003bb8       0x1c ../MyARMLib/STM32/STM32F10x_StdPeriph_Driver/src/stm32f10x_gpio.o
                0x00003bb8                GPIO_Write
 .text.GPIO_PinLockConfig
                0x00003bd4       0x44 ../MyARMLib/STM32/STM32F10x_StdPeriph_Driver/src/stm32f10x_gpio.o
                0x00003bd4                GPIO_PinLockConfig
 .text.GPIO_EventOutputConfig
                0x00003c18       0x54 ../MyARMLib/STM32/STM32F10x_StdPeriph_Driver/src/stm32f10x_gpio.o
                0x00003c18                GPIO_EventOutputConfig
 .text.GPIO_EventOutputCmd
                0x00003c6c       0x20 ../MyARMLib/STM32/STM32F10x_StdPeriph_Driver/src/stm32f10x_gpio.o
                0x00003c6c                GPIO_EventOutputCmd
 .text.GPIO_PinRemapConfig
                0x00003c8c      0x120 ../MyARMLib/STM32/STM32F10x_StdPeriph_Driver/src/stm32f10x_gpio.o
                0x00003c8c                GPIO_PinRemapConfig
 .text.GPIO_EXTILineConfig
                0x00003dac       0xb0 ../MyARMLib/STM32/STM32F10x_StdPeriph_Driver/src/stm32f10x_gpio.o
                0x00003dac                GPIO_EXTILineConfig
 .text.GPIO_ETH_MediaInterfaceConfig
                0x00003e5c       0x20 ../MyARMLib/STM32/STM32F10x_StdPeriph_Driver/src/stm32f10x_gpio.o
                0x00003e5c                GPIO_ETH_MediaInterfaceConfig
 .text          0x00003e7c        0x0 ../MyARMLib/STM32/STM32F10x_StdPeriph_Driver/src/stm32f10x_rcc.o
 .text.__NOP    0x00003e7c        0xc ../MyARMLib/STM32/STM32F10x_StdPeriph_Driver/src/stm32f10x_rcc.o
 .text.__WFI    0x00003e88        0xc ../MyARMLib/STM32/STM32F10x_StdPeriph_Driver/src/stm32f10x_rcc.o
 .text.__WFE    0x00003e94        0xc ../MyARMLib/STM32/STM32F10x_StdPeriph_Driver/src/stm32f10x_rcc.o
 .text.__SEV    0x00003ea0        0xc ../MyARMLib/STM32/STM32F10x_StdPeriph_Driver/src/stm32f10x_rcc.o
 .text.__ISB    0x00003eac       0x10 ../MyARMLib/STM32/STM32F10x_StdPeriph_Driver/src/stm32f10x_rcc.o
 .text.__DSB    0x00003ebc       0x10 ../MyARMLib/STM32/STM32F10x_StdPeriph_Driver/src/stm32f10x_rcc.o
 .text.__DMB    0x00003ecc       0x10 ../MyARMLib/STM32/STM32F10x_StdPeriph_Driver/src/stm32f10x_rcc.o
 .text.__REV    0x00003edc       0x1c ../MyARMLib/STM32/STM32F10x_StdPeriph_Driver/src/stm32f10x_rcc.o
 .text.__REV16  0x00003ef8       0x1c ../MyARMLib/STM32/STM32F10x_StdPeriph_Driver/src/stm32f10x_rcc.o
 .text.__REVSH  0x00003f14       0x1c ../MyARMLib/STM32/STM32F10x_StdPeriph_Driver/src/stm32f10x_rcc.o
 .text.__RBIT   0x00003f30       0x20 ../MyARMLib/STM32/STM32F10x_StdPeriph_Driver/src/stm32f10x_rcc.o
 .text.__LDREXB
                0x00003f50       0x20 ../MyARMLib/STM32/STM32F10x_StdPeriph_Driver/src/stm32f10x_rcc.o
 .text.__LDREXH
                0x00003f70       0x20 ../MyARMLib/STM32/STM32F10x_StdPeriph_Driver/src/stm32f10x_rcc.o
 .text.__LDREXW
                0x00003f90       0x20 ../MyARMLib/STM32/STM32F10x_StdPeriph_Driver/src/stm32f10x_rcc.o
 .text.__STREXB
                0x00003fb0       0x24 ../MyARMLib/STM32/STM32F10x_StdPeriph_Driver/src/stm32f10x_rcc.o
 .text.__STREXH
                0x00003fd4       0x24 ../MyARMLib/STM32/STM32F10x_StdPeriph_Driver/src/stm32f10x_rcc.o
 .text.__STREXW
                0x00003ff8       0x24 ../MyARMLib/STM32/STM32F10x_StdPeriph_Driver/src/stm32f10x_rcc.o
 .text.__CLREX  0x0000401c       0x10 ../MyARMLib/STM32/STM32F10x_StdPeriph_Driver/src/stm32f10x_rcc.o
 .text.__CLZ    0x0000402c       0x20 ../MyARMLib/STM32/STM32F10x_StdPeriph_Driver/src/stm32f10x_rcc.o
 .text.__enable_irq
                0x0000404c        0xc ../MyARMLib/STM32/STM32F10x_StdPeriph_Driver/src/stm32f10x_rcc.o
 .text.__disable_irq
                0x00004058        0xc ../MyARMLib/STM32/STM32F10x_StdPeriph_Driver/src/stm32f10x_rcc.o
 .text.__get_CONTROL
                0x00004064       0x1c ../MyARMLib/STM32/STM32F10x_StdPeriph_Driver/src/stm32f10x_rcc.o
 .text.__set_CONTROL
                0x00004080       0x18 ../MyARMLib/STM32/STM32F10x_StdPeriph_Driver/src/stm32f10x_rcc.o
 .text.__get_IPSR
                0x00004098       0x1c ../MyARMLib/STM32/STM32F10x_StdPeriph_Driver/src/stm32f10x_rcc.o
 .text.__get_APSR
                0x000040b4       0x1c ../MyARMLib/STM32/STM32F10x_StdPeriph_Driver/src/stm32f10x_rcc.o
 .text.__get_xPSR
                0x000040d0       0x1c ../MyARMLib/STM32/STM32F10x_StdPeriph_Driver/src/stm32f10x_rcc.o
 .text.__get_PSP
                0x000040ec       0x14 ../MyARMLib/STM32/STM32F10x_StdPeriph_Driver/src/stm32f10x_rcc.o
 .text.__set_PSP
                0x00004100       0x18 ../MyARMLib/STM32/STM32F10x_StdPeriph_Driver/src/stm32f10x_rcc.o
 .text.__get_MSP
                0x00004118       0x14 ../MyARMLib/STM32/STM32F10x_StdPeriph_Driver/src/stm32f10x_rcc.o
 .text.__set_MSP
                0x0000412c       0x18 ../MyARMLib/STM32/STM32F10x_StdPeriph_Driver/src/stm32f10x_rcc.o
 .text.__get_PRIMASK
                0x00004144       0x1c ../MyARMLib/STM32/STM32F10x_StdPeriph_Driver/src/stm32f10x_rcc.o
 .text.__set_PRIMASK
                0x00004160       0x18 ../MyARMLib/STM32/STM32F10x_StdPeriph_Driver/src/stm32f10x_rcc.o
 .text.__enable_fault_irq
                0x00004178        0xc ../MyARMLib/STM32/STM32F10x_StdPeriph_Driver/src/stm32f10x_rcc.o
 .text.__disable_fault_irq
                0x00004184        0xc ../MyARMLib/STM32/STM32F10x_StdPeriph_Driver/src/stm32f10x_rcc.o
 .text.__get_BASEPRI
                0x00004190       0x1c ../MyARMLib/STM32/STM32F10x_StdPeriph_Driver/src/stm32f10x_rcc.o
 .text.__set_BASEPRI
                0x000041ac       0x18 ../MyARMLib/STM32/STM32F10x_StdPeriph_Driver/src/stm32f10x_rcc.o
 .text.__get_FAULTMASK
                0x000041c4       0x1c ../MyARMLib/STM32/STM32F10x_StdPeriph_Driver/src/stm32f10x_rcc.o
 .text.__set_FAULTMASK
                0x000041e0       0x18 ../MyARMLib/STM32/STM32F10x_StdPeriph_Driver/src/stm32f10x_rcc.o
 .text.NVIC_SetPriorityGrouping
                0x000041f8       0x50 ../MyARMLib/STM32/STM32F10x_StdPeriph_Driver/src/stm32f10x_rcc.o
 .text.NVIC_GetPriorityGrouping
                0x00004248       0x20 ../MyARMLib/STM32/STM32F10x_StdPeriph_Driver/src/stm32f10x_rcc.o
 .text.NVIC_EnableIRQ
                0x00004268       0x38 ../MyARMLib/STM32/STM32F10x_StdPeriph_Driver/src/stm32f10x_rcc.o
 .text.NVIC_DisableIRQ
                0x000042a0       0x3c ../MyARMLib/STM32/STM32F10x_StdPeriph_Driver/src/stm32f10x_rcc.o
 .text.NVIC_GetPendingIRQ
                0x000042dc       0x4c ../MyARMLib/STM32/STM32F10x_StdPeriph_Driver/src/stm32f10x_rcc.o
 .text.NVIC_SetPendingIRQ
                0x00004328       0x3c ../MyARMLib/STM32/STM32F10x_StdPeriph_Driver/src/stm32f10x_rcc.o
 .text.NVIC_ClearPendingIRQ
                0x00004364       0x3c ../MyARMLib/STM32/STM32F10x_StdPeriph_Driver/src/stm32f10x_rcc.o
 .text.NVIC_GetActive
                0x000043a0       0x4c ../MyARMLib/STM32/STM32F10x_StdPeriph_Driver/src/stm32f10x_rcc.o
 .text.NVIC_SetPriority
                0x000043ec       0x5c ../MyARMLib/STM32/STM32F10x_StdPeriph_Driver/src/stm32f10x_rcc.o
 .text.NVIC_GetPriority
                0x00004448       0x58 ../MyARMLib/STM32/STM32F10x_StdPeriph_Driver/src/stm32f10x_rcc.o
 .text.NVIC_EncodePriority
                0x000044a0       0x78 ../MyARMLib/STM32/STM32F10x_StdPeriph_Driver/src/stm32f10x_rcc.o
 .text.NVIC_DecodePriority
                0x00004518       0x7c ../MyARMLib/STM32/STM32F10x_StdPeriph_Driver/src/stm32f10x_rcc.o
 .text.NVIC_SystemReset
                0x00004594       0x30 ../MyARMLib/STM32/STM32F10x_StdPeriph_Driver/src/stm32f10x_rcc.o
 .text.SysTick_Config
                0x000045c4       0x64 ../MyARMLib/STM32/STM32F10x_StdPeriph_Driver/src/stm32f10x_rcc.o
 .text.ITM_SendChar
                0x00004628       0x64 ../MyARMLib/STM32/STM32F10x_StdPeriph_Driver/src/stm32f10x_rcc.o
 .text.ITM_ReceiveChar
                0x0000468c       0x50 ../MyARMLib/STM32/STM32F10x_StdPeriph_Driver/src/stm32f10x_rcc.o
 .text.ITM_CheckChar
                0x000046dc       0x2c ../MyARMLib/STM32/STM32F10x_StdPeriph_Driver/src/stm32f10x_rcc.o
 .text.RCC_DeInit
                0x00004708       0x9c ../MyARMLib/STM32/STM32F10x_StdPeriph_Driver/src/stm32f10x_rcc.o
                0x00004708                RCC_DeInit
 .text.RCC_HSEConfig
                0x000047a4       0x88 ../MyARMLib/STM32/STM32F10x_StdPeriph_Driver/src/stm32f10x_rcc.o
                0x000047a4                RCC_HSEConfig
 .text.RCC_WaitForHSEStartUp
                0x0000482c       0x64 ../MyARMLib/STM32/STM32F10x_StdPeriph_Driver/src/stm32f10x_rcc.o
                0x0000482c                RCC_WaitForHSEStartUp
 .text.RCC_AdjustHSICalibrationValue
                0x00004890       0x48 ../MyARMLib/STM32/STM32F10x_StdPeriph_Driver/src/stm32f10x_rcc.o
                0x00004890                RCC_AdjustHSICalibrationValue
 .text.RCC_HSICmd
                0x000048d8       0x20 ../MyARMLib/STM32/STM32F10x_StdPeriph_Driver/src/stm32f10x_rcc.o
                0x000048d8                RCC_HSICmd
 .text.RCC_PLLConfig
                0x000048f8       0x48 ../MyARMLib/STM32/STM32F10x_StdPeriph_Driver/src/stm32f10x_rcc.o
                0x000048f8                RCC_PLLConfig
 .text.RCC_PLLCmd
                0x00004940       0x20 ../MyARMLib/STM32/STM32F10x_StdPeriph_Driver/src/stm32f10x_rcc.o
                0x00004940                RCC_PLLCmd
 .text.RCC_SYSCLKConfig
                0x00004960       0x40 ../MyARMLib/STM32/STM32F10x_StdPeriph_Driver/src/stm32f10x_rcc.o
                0x00004960                RCC_SYSCLKConfig
 .text.RCC_GetSYSCLKSource
                0x000049a0       0x20 ../MyARMLib/STM32/STM32F10x_StdPeriph_Driver/src/stm32f10x_rcc.o
                0x000049a0                RCC_GetSYSCLKSource
 .text.RCC_HCLKConfig
                0x000049c0       0x40 ../MyARMLib/STM32/STM32F10x_StdPeriph_Driver/src/stm32f10x_rcc.o
                0x000049c0                RCC_HCLKConfig
 .text.RCC_PCLK1Config
                0x00004a00       0x40 ../MyARMLib/STM32/STM32F10x_StdPeriph_Driver/src/stm32f10x_rcc.o
                0x00004a00                RCC_PCLK1Config
 .text.RCC_PCLK2Config
                0x00004a40       0x44 ../MyARMLib/STM32/STM32F10x_StdPeriph_Driver/src/stm32f10x_rcc.o
                0x00004a40                RCC_PCLK2Config
 .text.RCC_ITConfig
                0x00004a84       0x60 ../MyARMLib/STM32/STM32F10x_StdPeriph_Driver/src/stm32f10x_rcc.o
                0x00004a84                RCC_ITConfig
 .text.RCC_USBCLKConfig
                0x00004ae4       0x20 ../MyARMLib/STM32/STM32F10x_StdPeriph_Driver/src/stm32f10x_rcc.o
                0x00004ae4                RCC_USBCLKConfig
 .text.RCC_ADCCLKConfig
                0x00004b04       0x40 ../MyARMLib/STM32/STM32F10x_StdPeriph_Driver/src/stm32f10x_rcc.o
                0x00004b04                RCC_ADCCLKConfig
 .text.RCC_LSEConfig
                0x00004b44       0x60 ../MyARMLib/STM32/STM32F10x_StdPeriph_Driver/src/stm32f10x_rcc.o
                0x00004b44                RCC_LSEConfig
 .text.RCC_LSICmd
                0x00004ba4       0x20 ../MyARMLib/STM32/STM32F10x_StdPeriph_Driver/src/stm32f10x_rcc.o
                0x00004ba4                RCC_LSICmd
 .text.RCC_RTCCLKConfig
                0x00004bc4       0x2c ../MyARMLib/STM32/STM32F10x_StdPeriph_Driver/src/stm32f10x_rcc.o
                0x00004bc4                RCC_RTCCLKConfig
 .text.RCC_RTCCLKCmd
                0x00004bf0       0x20 ../MyARMLib/STM32/STM32F10x_StdPeriph_Driver/src/stm32f10x_rcc.o
                0x00004bf0                RCC_RTCCLKCmd
 .text.RCC_GetClocksFreq
                0x00004c10      0x1d4 ../MyARMLib/STM32/STM32F10x_StdPeriph_Driver/src/stm32f10x_rcc.o
                0x00004c10                RCC_GetClocksFreq
 .text.RCC_AHBPeriphClockCmd
                0x00004de4       0x54 ../MyARMLib/STM32/STM32F10x_StdPeriph_Driver/src/stm32f10x_rcc.o
                0x00004de4                RCC_AHBPeriphClockCmd
 .text.RCC_APB2PeriphClockCmd
                0x00004e38       0x54 ../MyARMLib/STM32/STM32F10x_StdPeriph_Driver/src/stm32f10x_rcc.o
                0x00004e38                RCC_APB2PeriphClockCmd
 .text.RCC_APB1PeriphClockCmd
                0x00004e8c       0x54 ../MyARMLib/STM32/STM32F10x_StdPeriph_Driver/src/stm32f10x_rcc.o
                0x00004e8c                RCC_APB1PeriphClockCmd
 .text.RCC_APB2PeriphResetCmd
                0x00004ee0       0x54 ../MyARMLib/STM32/STM32F10x_StdPeriph_Driver/src/stm32f10x_rcc.o
                0x00004ee0                RCC_APB2PeriphResetCmd
 .text.RCC_APB1PeriphResetCmd
                0x00004f34       0x54 ../MyARMLib/STM32/STM32F10x_StdPeriph_Driver/src/stm32f10x_rcc.o
                0x00004f34                RCC_APB1PeriphResetCmd
 .text.RCC_BackupResetCmd
                0x00004f88       0x20 ../MyARMLib/STM32/STM32F10x_StdPeriph_Driver/src/stm32f10x_rcc.o
                0x00004f88                RCC_BackupResetCmd
 .text.RCC_ClockSecuritySystemCmd
                0x00004fa8       0x20 ../MyARMLib/STM32/STM32F10x_StdPeriph_Driver/src/stm32f10x_rcc.o
                0x00004fa8                RCC_ClockSecuritySystemCmd
 .text.RCC_MCOConfig
                0x00004fc8       0x20 ../MyARMLib/STM32/STM32F10x_StdPeriph_Driver/src/stm32f10x_rcc.o
                0x00004fc8                RCC_MCOConfig
 .text.RCC_GetFlagStatus
                0x00004fe8       0x90 ../MyARMLib/STM32/STM32F10x_StdPeriph_Driver/src/stm32f10x_rcc.o
                0x00004fe8                RCC_GetFlagStatus
 .text.RCC_ClearFlag
                0x00005078       0x24 ../MyARMLib/STM32/STM32F10x_StdPeriph_Driver/src/stm32f10x_rcc.o
                0x00005078                RCC_ClearFlag
 .text.RCC_GetITStatus
                0x0000509c       0x40 ../MyARMLib/STM32/STM32F10x_StdPeriph_Driver/src/stm32f10x_rcc.o
                0x0000509c                RCC_GetITStatus
 .text.RCC_ClearITPendingBit
                0x000050dc       0x20 ../MyARMLib/STM32/STM32F10x_StdPeriph_Driver/src/stm32f10x_rcc.o
                0x000050dc                RCC_ClearITPendingBit
 .text          0x000050fc        0x0 ./RTOSDemo/main.o
 .text.__NOP    0x000050fc        0xc ./RTOSDemo/main.o
 .text.__WFI    0x00005108        0xc ./RTOSDemo/main.o
 .text.__WFE    0x00005114        0xc ./RTOSDemo/main.o
 .text.__SEV    0x00005120        0xc ./RTOSDemo/main.o
 .text.__ISB    0x0000512c       0x10 ./RTOSDemo/main.o
 .text.__DSB    0x0000513c       0x10 ./RTOSDemo/main.o
 .text.__DMB    0x0000514c       0x10 ./RTOSDemo/main.o
 .text.__REV    0x0000515c       0x1c ./RTOSDemo/main.o
 .text.__REV16  0x00005178       0x1c ./RTOSDemo/main.o
 .text.__REVSH  0x00005194       0x1c ./RTOSDemo/main.o
 .text.__RBIT   0x000051b0       0x20 ./RTOSDemo/main.o
 .text.__LDREXB
                0x000051d0       0x20 ./RTOSDemo/main.o
 .text.__LDREXH
                0x000051f0       0x20 ./RTOSDemo/main.o
 .text.__LDREXW
                0x00005210       0x20 ./RTOSDemo/main.o
 .text.__STREXB
                0x00005230       0x24 ./RTOSDemo/main.o
 .text.__STREXH
                0x00005254       0x24 ./RTOSDemo/main.o
 .text.__STREXW
                0x00005278       0x24 ./RTOSDemo/main.o
 .text.__CLREX  0x0000529c       0x10 ./RTOSDemo/main.o
 .text.__CLZ    0x000052ac       0x20 ./RTOSDemo/main.o
 .text.__enable_irq
                0x000052cc        0xc ./RTOSDemo/main.o
 .text.__disable_irq
                0x000052d8        0xc ./RTOSDemo/main.o
 .text.__get_CONTROL
                0x000052e4       0x1c ./RTOSDemo/main.o
 .text.__set_CONTROL
                0x00005300       0x18 ./RTOSDemo/main.o
 .text.__get_IPSR
                0x00005318       0x1c ./RTOSDemo/main.o
 .text.__get_APSR
                0x00005334       0x1c ./RTOSDemo/main.o
 .text.__get_xPSR
                0x00005350       0x1c ./RTOSDemo/main.o
 .text.__get_PSP
                0x0000536c       0x14 ./RTOSDemo/main.o
 .text.__set_PSP
                0x00005380       0x18 ./RTOSDemo/main.o
 .text.__get_MSP
                0x00005398       0x14 ./RTOSDemo/main.o
 .text.__set_MSP
                0x000053ac       0x18 ./RTOSDemo/main.o
 .text.__get_PRIMASK
                0x000053c4       0x1c ./RTOSDemo/main.o
 .text.__set_PRIMASK
                0x000053e0       0x18 ./RTOSDemo/main.o
 .text.__enable_fault_irq
                0x000053f8        0xc ./RTOSDemo/main.o
 .text.__disable_fault_irq
                0x00005404        0xc ./RTOSDemo/main.o
 .text.__get_BASEPRI
                0x00005410       0x1c ./RTOSDemo/main.o
 .text.__set_BASEPRI
                0x0000542c       0x18 ./RTOSDemo/main.o
 .text.__get_FAULTMASK
                0x00005444       0x1c ./RTOSDemo/main.o
 .text.__set_FAULTMASK
                0x00005460       0x18 ./RTOSDemo/main.o
 .text.NVIC_SetPriorityGrouping
                0x00005478       0x50 ./RTOSDemo/main.o
 .text.NVIC_GetPriorityGrouping
                0x000054c8       0x20 ./RTOSDemo/main.o
 .text.NVIC_EnableIRQ
                0x000054e8       0x38 ./RTOSDemo/main.o
 .text.NVIC_DisableIRQ
                0x00005520       0x3c ./RTOSDemo/main.o
 .text.NVIC_GetPendingIRQ
                0x0000555c       0x4c ./RTOSDemo/main.o
 .text.NVIC_SetPendingIRQ
                0x000055a8       0x3c ./RTOSDemo/main.o
 .text.NVIC_ClearPendingIRQ
                0x000055e4       0x3c ./RTOSDemo/main.o
 .text.NVIC_GetActive
                0x00005620       0x4c ./RTOSDemo/main.o
 .text.NVIC_SetPriority
                0x0000566c       0x5c ./RTOSDemo/main.o
 .text.NVIC_GetPriority
                0x000056c8       0x58 ./RTOSDemo/main.o
 .text.NVIC_EncodePriority
                0x00005720       0x78 ./RTOSDemo/main.o
 .text.NVIC_DecodePriority
                0x00005798       0x7c ./RTOSDemo/main.o
 .text.NVIC_SystemReset
                0x00005814       0x30 ./RTOSDemo/main.o
 .text.SysTick_Config
                0x00005844       0x64 ./RTOSDemo/main.o
 .text.ITM_SendChar
                0x000058a8       0x64 ./RTOSDemo/main.o
 .text.ITM_ReceiveChar
                0x0000590c       0x50 ./RTOSDemo/main.o
 .text.ITM_CheckChar
                0x0000595c       0x2c ./RTOSDemo/main.o
 .text.vTaskLED1
                0x00005988       0x3c ./RTOSDemo/main.o
                0x00005988                vTaskLED1
 .text.vTaskLED2
                0x000059c4       0x3c ./RTOSDemo/main.o
                0x000059c4                vTaskLED2
 .text.main     0x00005a00       0xa4 ./RTOSDemo/main.o
                0x00005a00                main
 .text.vApplicationTickHook
                0x00005aa4        0xc ./RTOSDemo/main.o
                0x00005aa4                vApplicationTickHook
 .text          0x00005ab0       0x5c /home/valentin/CodeSourcery/Sourcery_CodeBench_Lite_for_ARM_EABI/bin/../lib/gcc/arm-none-eabi/4.6.1/../../../../arm-none-eabi/lib/thumb2/libc.a(lib_a-memcmp.o)
                0x00005ab0                memcmp
 .text          0x00005b0c       0xf0 /home/valentin/CodeSourcery/Sourcery_CodeBench_Lite_for_ARM_EABI/bin/../lib/gcc/arm-none-eabi/4.6.1/../../../../arm-none-eabi/lib/thumb2/libc.a(lib_a-memcpy.o)
                0x00005b0c                memcpy
 .text          0x00005bfc       0x8c /home/valentin/CodeSourcery/Sourcery_CodeBench_Lite_for_ARM_EABI/bin/../lib/gcc/arm-none-eabi/4.6.1/../../../../arm-none-eabi/lib/thumb2/libc.a(lib_a-memset.o)
                0x00005bfc                memset
 .text          0x00005c88       0x74 /home/valentin/CodeSourcery/Sourcery_CodeBench_Lite_for_ARM_EABI/bin/../lib/gcc/arm-none-eabi/4.6.1/../../../../arm-none-eabi/lib/thumb2/libc.a(lib_a-strncpy.o)
                0x00005c88                strncpy
 *(.rodata .rodata.* .gnu.linkonce.r.*)
 .rodata        0x00005cfc        0x8 ../FreeRTOS/Source/tasks.o
 .rodata.ucExpectedStackBytes.5747
                0x00005d04       0x14 ../FreeRTOS/Source/tasks.o
 .rodata.ulKernelPriority
                0x00005d18        0x4 ../FreeRTOS/Source/portable/GCC/ARM_CM3/port.o
                0x00005d18                ulKernelPriority
 .rodata.heapSTRUCT_SIZE
                0x00005d1c        0x2 ../FreeRTOS/Source/portable/MemMang/heap_2.o
 *fill*         0x00005d1e        0x2 00
 .rodata        0x00005d20       0x10 ./RTOSDemo/main.o
 *(.eh_frame_hdr)
 *(.eh_frame)
 *(.ARM.extab* .gnu.linkonce.armextab.*)
 *(.gcc_except_table)
 *(.eh_frame_hdr)
 *(.eh_frame)
                0x00005d30                . = ALIGN (0x4)
 *(.init)
                0x00005d30                . = ALIGN (0x4)
                0x00005d30                __preinit_array_start = .
 *(.preinit_array)
                0x00005d30                __preinit_array_end = .
                0x00005d30                . = ALIGN (0x4)
                0x00005d30                __init_array_start = .
 *(SORT(.init_array.*))
 *(.init_array)
                0x00005d30                __init_array_end = .
                0x00005d30                . = ALIGN (0x4)
 *crtbegin.o(.ctors)
 *(EXCLUDE_FILE(*crtend.o) .ctors)
 *(SORT(.ctors.*))
 *crtend.o(.ctors)
                0x00005d30                . = ALIGN (0x4)
 *(.fini)
                0x00005d30                . = ALIGN (0x4)
                0x00005d30                __fini_array_start = .
 *(.fini_array)
 *(SORT(.fini_array.*))
                0x00005d30                __fini_array_end = .
 *crtbegin.o(.dtors)
 *(EXCLUDE_FILE(*crtend.o) .dtors)
 *(SORT(.dtors.*))
 *crtend.o(.dtors)
                0x00005d30                . = ALIGN (0x8)
                0x00005d30                _etext = .
                0x00005d30                __exidx_start = .

.glue_7         0x00005d30        0x0
 .glue_7        0x00000000        0x0 linker stubs

.glue_7t        0x00005d30        0x0
 .glue_7t       0x00000000        0x0 linker stubs

.vfp11_veneer   0x00005d30        0x0
 .vfp11_veneer  0x00000000        0x0 linker stubs

.v4_bx          0x00005d30        0x0
 .v4_bx         0x00000000        0x0 linker stubs

.iplt           0x00005d30        0x0
 .iplt          0x00000000        0x0 ./RTOSDemo/system_stm32f10x.o

.rel.dyn        0x00005d30        0x0
 .rel.iplt      0x00000000        0x0 ./RTOSDemo/system_stm32f10x.o

.ARM.exidx
 *(.ARM.exidx* .gnu.linkonce.armexidx.*)
                0x00005d30                __exidx_end = .
                0x00005d30                _flash_data = .

.data           0x20000000       0x34 load address 0x00005d30
                0x20000000                _data = .
 *(vtable)
 *(.data*)
 .data          0x20000000        0x0 ./RTOSDemo/system_stm32f10x.o
 .data.SystemCoreClock
                0x20000000        0x4 ./RTOSDemo/system_stm32f10x.o
                0x20000000                SystemCoreClock
 .data.AHBPrescTable
                0x20000004       0x10 ./RTOSDemo/system_stm32f10x.o
                0x20000004                AHBPrescTable
 .data          0x20000014        0x0 ../FreeRTOS/Source/list.o
 .data          0x20000014        0x0 ../FreeRTOS/Source/timers.o
 .data          0x20000014        0x0 ../FreeRTOS/Source/queue.o
 .data          0x20000014        0x0 ../FreeRTOS/Source/tasks.o
 .data.xNextTaskUnblockTime
                0x20000014        0x4 ../FreeRTOS/Source/tasks.o
 .data          0x20000018        0x0 ../FreeRTOS/Source/portable/GCC/ARM_CM3/port.o
 .data.uxCriticalNesting
                0x20000018        0x4 ../FreeRTOS/Source/portable/GCC/ARM_CM3/port.o
 .data          0x2000001c        0x0 ../FreeRTOS/Source/portable/MemMang/heap_2.o
 .data.xFreeBytesRemaining
                0x2000001c        0x4 ../FreeRTOS/Source/portable/MemMang/heap_2.o
 .data          0x20000020        0x0 ../MyARMLib/STM32/STM32F10x_StdPeriph_Driver/src/stm32f10x_gpio.o
 .data          0x20000020        0x0 ../MyARMLib/STM32/STM32F10x_StdPeriph_Driver/src/stm32f10x_rcc.o
 .data.APBAHBPrescTable
                0x20000020       0x10 ../MyARMLib/STM32/STM32F10x_StdPeriph_Driver/src/stm32f10x_rcc.o
 .data.ADCPrescTable
                0x20000030        0x4 ../MyARMLib/STM32/STM32F10x_StdPeriph_Driver/src/stm32f10x_rcc.o
 .data          0x20000034        0x0 ./RTOSDemo/main.o
 .data          0x20000034        0x0 /home/valentin/CodeSourcery/Sourcery_CodeBench_Lite_for_ARM_EABI/bin/../lib/gcc/arm-none-eabi/4.6.1/../../../../arm-none-eabi/lib/thumb2/libc.a(lib_a-memcmp.o)
 .data          0x20000034        0x0 /home/valentin/CodeSourcery/Sourcery_CodeBench_Lite_for_ARM_EABI/bin/../lib/gcc/arm-none-eabi/4.6.1/../../../../arm-none-eabi/lib/thumb2/libc.a(lib_a-memcpy.o)
 .data          0x20000034        0x0 /home/valentin/CodeSourcery/Sourcery_CodeBench_Lite_for_ARM_EABI/bin/../lib/gcc/arm-none-eabi/4.6.1/../../../../arm-none-eabi/lib/thumb2/libc.a(lib_a-memset.o)
 .data          0x20000034        0x0 /home/valentin/CodeSourcery/Sourcery_CodeBench_Lite_for_ARM_EABI/bin/../lib/gcc/arm-none-eabi/4.6.1/../../../../arm-none-eabi/lib/thumb2/libc.a(lib_a-strncpy.o)
                0x20000034                _edata = .

.igot.plt       0x20000034        0x0 load address 0x00005d64
 .igot.plt      0x00000000        0x0 ./RTOSDemo/system_stm32f10x.o

.bss            0x20000038     0x4914 load address 0x00005d68
                0x20000038                _bss = .
 *(.bss*)
 .bss           0x20000038        0x0 ./RTOSDemo/system_stm32f10x.o
 .bss           0x20000038        0x0 ../FreeRTOS/Source/list.o
 .bss           0x20000038        0x0 ../FreeRTOS/Source/timers.o
 .bss           0x20000038        0x0 ../FreeRTOS/Source/queue.o
 .bss           0x20000038        0x0 ../FreeRTOS/Source/tasks.o
 .bss.pxCurrentTCB
                0x20000038        0x4 ../FreeRTOS/Source/tasks.o
                0x20000038                pxCurrentTCB
 .bss.pxReadyTasksLists
                0x2000003c       0x64 ../FreeRTOS/Source/tasks.o
 .bss.xDelayedTaskList1
                0x200000a0       0x14 ../FreeRTOS/Source/tasks.o
 .bss.xDelayedTaskList2
                0x200000b4       0x14 ../FreeRTOS/Source/tasks.o
 .bss.pxDelayedTaskList
                0x200000c8        0x4 ../FreeRTOS/Source/tasks.o
 .bss.pxOverflowDelayedTaskList
                0x200000cc        0x4 ../FreeRTOS/Source/tasks.o
 .bss.xPendingReadyList
                0x200000d0       0x14 ../FreeRTOS/Source/tasks.o
 .bss.xTasksWaitingTermination
                0x200000e4       0x14 ../FreeRTOS/Source/tasks.o
 .bss.uxTasksDeleted
                0x200000f8        0x4 ../FreeRTOS/Source/tasks.o
 .bss.xSuspendedTaskList
                0x200000fc       0x14 ../FreeRTOS/Source/tasks.o
 .bss.uxCurrentNumberOfTasks
                0x20000110        0x4 ../FreeRTOS/Source/tasks.o
 .bss.xTickCount
                0x20000114        0x4 ../FreeRTOS/Source/tasks.o
 .bss.uxTopUsedPriority
                0x20000118        0x4 ../FreeRTOS/Source/tasks.o
 .bss.uxTopReadyPriority
                0x2000011c        0x4 ../FreeRTOS/Source/tasks.o
 .bss.xSchedulerRunning
                0x20000120        0x4 ../FreeRTOS/Source/tasks.o
 .bss.uxSchedulerSuspended
                0x20000124        0x4 ../FreeRTOS/Source/tasks.o
 .bss.uxMissedTicks
                0x20000128        0x4 ../FreeRTOS/Source/tasks.o
 .bss.xMissedYield
                0x2000012c        0x4 ../FreeRTOS/Source/tasks.o
 .bss.xNumOfOverflows
                0x20000130        0x4 ../FreeRTOS/Source/tasks.o
 .bss.uxTCBNumber
                0x20000134        0x4 ../FreeRTOS/Source/tasks.o
 .bss           0x20000138        0x0 ../FreeRTOS/Source/portable/GCC/ARM_CM3/port.o
 .bss           0x20000138        0x0 ../FreeRTOS/Source/portable/MemMang/heap_2.o
 .bss.xHeap     0x20000138     0x4800 ../FreeRTOS/Source/portable/MemMang/heap_2.o
 .bss.xStart    0x20004938        0x8 ../FreeRTOS/Source/portable/MemMang/heap_2.o
 .bss.xEnd      0x20004940        0x8 ../FreeRTOS/Source/portable/MemMang/heap_2.o
 .bss.xHeapHasBeenInitialised.4699
                0x20004948        0x4 ../FreeRTOS/Source/portable/MemMang/heap_2.o
 .bss           0x2000494c        0x0 ../MyARMLib/STM32/STM32F10x_StdPeriph_Driver/src/stm32f10x_gpio.o
 .bss           0x2000494c        0x0 ../MyARMLib/STM32/STM32F10x_StdPeriph_Driver/src/stm32f10x_rcc.o
 .bss           0x2000494c        0x0 ./RTOSDemo/main.o
 .bss           0x2000494c        0x0 /home/valentin/CodeSourcery/Sourcery_CodeBench_Lite_for_ARM_EABI/bin/../lib/gcc/arm-none-eabi/4.6.1/../../../../arm-none-eabi/lib/thumb2/libc.a(lib_a-memcmp.o)
 .bss           0x2000494c        0x0 /home/valentin/CodeSourcery/Sourcery_CodeBench_Lite_for_ARM_EABI/bin/../lib/gcc/arm-none-eabi/4.6.1/../../../../arm-none-eabi/lib/thumb2/libc.a(lib_a-memcpy.o)
 .bss           0x2000494c        0x0 /home/valentin/CodeSourcery/Sourcery_CodeBench_Lite_for_ARM_EABI/bin/../lib/gcc/arm-none-eabi/4.6.1/../../../../arm-none-eabi/lib/thumb2/libc.a(lib_a-memset.o)
 .bss           0x2000494c        0x0 /home/valentin/CodeSourcery/Sourcery_CodeBench_Lite_for_ARM_EABI/bin/../lib/gcc/arm-none-eabi/4.6.1/../../../../arm-none-eabi/lib/thumb2/libc.a(lib_a-strncpy.o)
 *(COMMON)
                0x2000494c                _ebss = .
                0x2000494c                _end = .
                0x2000494c                __end = .
                0x2000494c                PROVIDE (_heap, _end)
                0x2000fff8                PROVIDE (_eheap, ALIGN (((ORIGIN (SRAM) + 0x10000) - 0x8), 0x8))
OUTPUT(RTOSDemo.axf elf32-littlearm)

.debug_info     0x00000000     0x7379
 .debug_info    0x00000000     0x1312 ./RTOSDemo/system_stm32f10x.o
 .debug_info    0x00001312      0x2aa ../FreeRTOS/Source/list.o
 .debug_info    0x000015bc       0x50 ../FreeRTOS/Source/timers.o
 .debug_info    0x0000160c      0x8a4 ../FreeRTOS/Source/queue.o
 .debug_info    0x00001eb0      0xdac ../FreeRTOS/Source/tasks.o
 .debug_info    0x00002c5c      0x1db ../FreeRTOS/Source/portable/GCC/ARM_CM3/port.o
 .debug_info    0x00002e37      0x2b7 ../FreeRTOS/Source/portable/MemMang/heap_2.o
 .debug_info    0x000030ee     0x170b ../MyARMLib/STM32/STM32F10x_StdPeriph_Driver/src/stm32f10x_gpio.o
 .debug_info    0x000047f9     0x18f9 ../MyARMLib/STM32/STM32F10x_StdPeriph_Driver/src/stm32f10x_rcc.o
 .debug_info    0x000060f2     0x1287 ./RTOSDemo/main.o

.debug_abbrev   0x00000000      0xf29
 .debug_abbrev  0x00000000      0x212 ./RTOSDemo/system_stm32f10x.o
 .debug_abbrev  0x00000212       0xb8 ../FreeRTOS/Source/list.o
 .debug_abbrev  0x000002ca       0x2a ../FreeRTOS/Source/timers.o
 .debug_abbrev  0x000002f4      0x10b ../FreeRTOS/Source/queue.o
 .debug_abbrev  0x000003ff      0x182 ../FreeRTOS/Source/tasks.o
 .debug_abbrev  0x00000581      0x122 ../FreeRTOS/Source/portable/GCC/ARM_CM3/port.o
 .debug_abbrev  0x000006a3      0x15e ../FreeRTOS/Source/portable/MemMang/heap_2.o
 .debug_abbrev  0x00000801      0x27a ../MyARMLib/STM32/STM32F10x_StdPeriph_Driver/src/stm32f10x_gpio.o
 .debug_abbrev  0x00000a7b      0x260 ../MyARMLib/STM32/STM32F10x_StdPeriph_Driver/src/stm32f10x_rcc.o
 .debug_abbrev  0x00000cdb      0x24e ./RTOSDemo/main.o

.debug_loc      0x00000000     0x4844
 .debug_loc     0x00000000      0xc04 ./RTOSDemo/system_stm32f10x.o
 .debug_loc     0x00000c04      0x118 ../FreeRTOS/Source/list.o
 .debug_loc     0x00000d1c      0x460 ../FreeRTOS/Source/queue.o
 .debug_loc     0x0000117c      0x740 ../FreeRTOS/Source/tasks.o
 .debug_loc     0x000018bc      0x178 ../FreeRTOS/Source/portable/GCC/ARM_CM3/port.o
 .debug_loc     0x00001a34       0xc8 ../FreeRTOS/Source/portable/MemMang/heap_2.o
 .debug_loc     0x00001afc      0xf20 ../MyARMLib/STM32/STM32F10x_StdPeriph_Driver/src/stm32f10x_gpio.o
 .debug_loc     0x00002a1c     0x1218 ../MyARMLib/STM32/STM32F10x_StdPeriph_Driver/src/stm32f10x_rcc.o
 .debug_loc     0x00003c34      0xc10 ./RTOSDemo/main.o

.debug_aranges  0x00000000      0xbd8
 .debug_aranges
                0x00000000      0x1f0 ./RTOSDemo/system_stm32f10x.o
 .debug_aranges
                0x000001f0       0x40 ../FreeRTOS/Source/list.o
 .debug_aranges
                0x00000230       0xb8 ../FreeRTOS/Source/queue.o
 .debug_aranges
                0x000002e8      0x128 ../FreeRTOS/Source/tasks.o
 .debug_aranges
                0x00000410       0x70 ../FreeRTOS/Source/portable/GCC/ARM_CM3/port.o
 .debug_aranges
                0x00000480       0x38 ../FreeRTOS/Source/portable/MemMang/heap_2.o
 .debug_aranges
                0x000004b8      0x260 ../MyARMLib/STM32/STM32F10x_StdPeriph_Driver/src/stm32f10x_gpio.o
 .debug_aranges
                0x00000718      0x2d0 ../MyARMLib/STM32/STM32F10x_StdPeriph_Driver/src/stm32f10x_rcc.o
 .debug_aranges
                0x000009e8      0x1f0 ./RTOSDemo/main.o

.debug_ranges   0x00000000      0xb48
 .debug_ranges  0x00000000      0x1e0 ./RTOSDemo/system_stm32f10x.o
 .debug_ranges  0x000001e0       0x30 ../FreeRTOS/Source/list.o
 .debug_ranges  0x00000210       0xa8 ../FreeRTOS/Source/queue.o
 .debug_ranges  0x000002b8      0x118 ../FreeRTOS/Source/tasks.o
 .debug_ranges  0x000003d0       0x60 ../FreeRTOS/Source/portable/GCC/ARM_CM3/port.o
 .debug_ranges  0x00000430       0x28 ../FreeRTOS/Source/portable/MemMang/heap_2.o
 .debug_ranges  0x00000458      0x250 ../MyARMLib/STM32/STM32F10x_StdPeriph_Driver/src/stm32f10x_gpio.o
 .debug_ranges  0x000006a8      0x2c0 ../MyARMLib/STM32/STM32F10x_StdPeriph_Driver/src/stm32f10x_rcc.o
 .debug_ranges  0x00000968      0x1e0 ./RTOSDemo/main.o

.debug_line     0x00000000     0x2e9c
 .debug_line    0x00000000      0x707 ./RTOSDemo/system_stm32f10x.o
 .debug_line    0x00000707      0x119 ../FreeRTOS/Source/list.o
 .debug_line    0x00000820       0x1d ../FreeRTOS/Source/timers.o
 .debug_line    0x0000083d      0x3b8 ../FreeRTOS/Source/queue.o
 .debug_line    0x00000bf5      0x663 ../FreeRTOS/Source/tasks.o
 .debug_line    0x00001258      0x161 ../FreeRTOS/Source/portable/GCC/ARM_CM3/port.o
 .debug_line    0x000013b9      0x16d ../FreeRTOS/Source/portable/MemMang/heap_2.o
 .debug_line    0x00001526      0x894 ../MyARMLib/STM32/STM32F10x_StdPeriph_Driver/src/stm32f10x_gpio.o
 .debug_line    0x00001dba      0x9be ../MyARMLib/STM32/STM32F10x_StdPeriph_Driver/src/stm32f10x_rcc.o
 .debug_line    0x00002778      0x724 ./RTOSDemo/main.o

.debug_str      0x00000000     0x1f3e
 .debug_str     0x00000000      0x8fd ./RTOSDemo/system_stm32f10x.o
                                0x982 (size before relaxing)
 .debug_str     0x000008fd      0x145 ../FreeRTOS/Source/list.o
                                0x209 (size before relaxing)
 .debug_str     0x00000a42       0x1c ../FreeRTOS/Source/timers.o
                                 0x98 (size before relaxing)
 .debug_str     0x00000a5e      0x3c7 ../FreeRTOS/Source/queue.o
                                0x54b (size before relaxing)
 .debug_str     0x00000e25      0x69d ../FreeRTOS/Source/tasks.o
                                0x871 (size before relaxing)
 .debug_str     0x000014c2      0x12a ../FreeRTOS/Source/portable/GCC/ARM_CM3/port.o
                                0x1d9 (size before relaxing)
 .debug_str     0x000015ec      0x164 ../FreeRTOS/Source/portable/MemMang/heap_2.o
                                0x234 (size before relaxing)
 .debug_str     0x00001750      0x3b5 ../MyARMLib/STM32/STM32F10x_StdPeriph_Driver/src/stm32f10x_gpio.o
                                0xc27 (size before relaxing)
 .debug_str     0x00001b05      0x3e8 ../MyARMLib/STM32/STM32F10x_StdPeriph_Driver/src/stm32f10x_rcc.o
                                0xd32 (size before relaxing)
 .debug_str     0x00001eed       0x51 ./RTOSDemo/main.o
                                0xa08 (size before relaxing)

.comment        0x00000000       0x30
 .comment       0x00000000       0x30 ./RTOSDemo/system_stm32f10x.o
                                 0x31 (size before relaxing)
 .comment       0x00000000       0x31 ../FreeRTOS/Source/list.o
 .comment       0x00000000       0x31 ../FreeRTOS/Source/timers.o
 .comment       0x00000000       0x31 ../FreeRTOS/Source/queue.o
 .comment       0x00000000       0x31 ../FreeRTOS/Source/tasks.o
 .comment       0x00000000       0x31 ../FreeRTOS/Source/portable/GCC/ARM_CM3/port.o
 .comment       0x00000000       0x31 ../FreeRTOS/Source/portable/MemMang/heap_2.o
 .comment       0x00000000       0x31 ../MyARMLib/STM32/STM32F10x_StdPeriph_Driver/src/stm32f10x_gpio.o
 .comment       0x00000000       0x31 ../MyARMLib/STM32/STM32F10x_StdPeriph_Driver/src/stm32f10x_rcc.o
 .comment       0x00000000       0x31 ./RTOSDemo/main.o

.ARM.attributes
                0x00000000       0x33
 .ARM.attributes
                0x00000000       0x33 ./RTOSDemo/system_stm32f10x.o
 .ARM.attributes
                0x00000033       0x33 ../FreeRTOS/Source/list.o
 .ARM.attributes
                0x00000066       0x33 ../FreeRTOS/Source/timers.o
 .ARM.attributes
                0x00000099       0x33 ../FreeRTOS/Source/queue.o
 .ARM.attributes
                0x000000cc       0x33 ../FreeRTOS/Source/tasks.o
 .ARM.attributes
                0x000000ff       0x33 ../FreeRTOS/Source/portable/GCC/ARM_CM3/port.o
 .ARM.attributes
                0x00000132       0x33 ../FreeRTOS/Source/portable/MemMang/heap_2.o
 .ARM.attributes
                0x00000165       0x33 ../MyARMLib/STM32/STM32F10x_StdPeriph_Driver/src/stm32f10x_gpio.o
 .ARM.attributes
                0x00000198       0x33 ../MyARMLib/STM32/STM32F10x_StdPeriph_Driver/src/stm32f10x_rcc.o
 .ARM.attributes
                0x000001cb       0x33 ./RTOSDemo/main.o
 .ARM.attributes
                0x000001fe       0x2b /home/valentin/CodeSourcery/Sourcery_CodeBench_Lite_for_ARM_EABI/bin/../lib/gcc/arm-none-eabi/4.6.1/../../../../arm-none-eabi/lib/thumb2/libc.a(lib_a-memcmp.o)
 .ARM.attributes
                0x00000229       0x2b /home/valentin/CodeSourcery/Sourcery_CodeBench_Lite_for_ARM_EABI/bin/../lib/gcc/arm-none-eabi/4.6.1/../../../../arm-none-eabi/lib/thumb2/libc.a(lib_a-memcpy.o)
 .ARM.attributes
                0x00000254       0x2b /home/valentin/CodeSourcery/Sourcery_CodeBench_Lite_for_ARM_EABI/bin/../lib/gcc/arm-none-eabi/4.6.1/../../../../arm-none-eabi/lib/thumb2/libc.a(lib_a-memset.o)
 .ARM.attributes
                0x0000027f       0x2b /home/valentin/CodeSourcery/Sourcery_CodeBench_Lite_for_ARM_EABI/bin/../lib/gcc/arm-none-eabi/4.6.1/../../../../arm-none-eabi/lib/thumb2/libc.a(lib_a-strncpy.o)

.debug_frame    0x00000000     0x2878
 .debug_frame   0x00000000      0x694 ./RTOSDemo/system_stm32f10x.o
 .debug_frame   0x00000694       0x9c ../FreeRTOS/Source/list.o
 .debug_frame   0x00000730      0x284 ../FreeRTOS/Source/queue.o
 .debug_frame   0x000009b4      0x424 ../FreeRTOS/Source/tasks.o
 .debug_frame   0x00000dd8      0x110 ../FreeRTOS/Source/portable/GCC/ARM_CM3/port.o
 .debug_frame   0x00000ee8       0x80 ../FreeRTOS/Source/portable/MemMang/heap_2.o
 .debug_frame   0x00000f68      0x824 ../MyARMLib/STM32/STM32F10x_StdPeriph_Driver/src/stm32f10x_gpio.o
 .debug_frame   0x0000178c      0x99c ../MyARMLib/STM32/STM32F10x_StdPeriph_Driver/src/stm32f10x_rcc.o
 .debug_frame   0x00002128      0x69c ./RTOSDemo/main.o
 .debug_frame   0x000027c4       0x2c /home/valentin/CodeSourcery/Sourcery_CodeBench_Lite_for_ARM_EABI/bin/../lib/gcc/arm-none-eabi/4.6.1/../../../../arm-none-eabi/lib/thumb2/libc.a(lib_a-memcmp.o)
 .debug_frame   0x000027f0       0x30 /home/valentin/CodeSourcery/Sourcery_CodeBench_Lite_for_ARM_EABI/bin/../lib/gcc/arm-none-eabi/4.6.1/../../../../arm-none-eabi/lib/thumb2/libc.a(lib_a-memcpy.o)
 .debug_frame   0x00002820       0x2c /home/valentin/CodeSourcery/Sourcery_CodeBench_Lite_for_ARM_EABI/bin/../lib/gcc/arm-none-eabi/4.6.1/../../../../arm-none-eabi/lib/thumb2/libc.a(lib_a-memset.o)
 .debug_frame   0x0000284c       0x2c /home/valentin/CodeSourcery/Sourcery_CodeBench_Lite_for_ARM_EABI/bin/../lib/gcc/arm-none-eabi/4.6.1/../../../../arm-none-eabi/lib/thumb2/libc.a(lib_a-strncpy.o)
