   1              		.syntax unified
   2              		.cpu cortex-m3
   3              		.fpu softvfp
   4              		.eabi_attribute 20, 1
   5              		.eabi_attribute 21, 1
   6              		.eabi_attribute 23, 3
   7              		.eabi_attribute 24, 1
   8              		.eabi_attribute 25, 1
   9              		.eabi_attribute 26, 1
  10              		.eabi_attribute 30, 2
  11              		.eabi_attribute 34, 1
  12              		.eabi_attribute 18, 4
  13              		.thumb
  14              		.file	"GenQTest.c"
  15              		.text
  16              	.Ltext0:
  17              		.cfi_sections	.debug_frame
  18              		.section	.text.prvMediumPriorityMutexTask,"ax",%progbits
  19              		.align	2
  20              		.thumb
  21              		.thumb_func
  23              	prvMediumPriorityMutexTask:
  24              	.LFB3:
  25              		.file 1 "../FreeRTOS/Demo/Common/Minimal/GenQTest.c"
   1:../FreeRTOS/Demo/Common/Minimal/GenQTest.c **** /*
   2:../FreeRTOS/Demo/Common/Minimal/GenQTest.c ****     FreeRTOS V7.1.0 - Copyright (C) 2011 Real Time Engineers Ltd.
   3:../FreeRTOS/Demo/Common/Minimal/GenQTest.c **** 	
   4:../FreeRTOS/Demo/Common/Minimal/GenQTest.c **** 
   5:../FreeRTOS/Demo/Common/Minimal/GenQTest.c ****     ***************************************************************************
   6:../FreeRTOS/Demo/Common/Minimal/GenQTest.c ****      *                                                                       *
   7:../FreeRTOS/Demo/Common/Minimal/GenQTest.c ****      *    FreeRTOS tutorial books are available in pdf and paperback.        *
   8:../FreeRTOS/Demo/Common/Minimal/GenQTest.c ****      *    Complete, revised, and edited pdf reference manuals are also       *
   9:../FreeRTOS/Demo/Common/Minimal/GenQTest.c ****      *    available.                                                         *
  10:../FreeRTOS/Demo/Common/Minimal/GenQTest.c ****      *                                                                       *
  11:../FreeRTOS/Demo/Common/Minimal/GenQTest.c ****      *    Purchasing FreeRTOS documentation will not only help you, by       *
  12:../FreeRTOS/Demo/Common/Minimal/GenQTest.c ****      *    ensuring you get running as quickly as possible and with an        *
  13:../FreeRTOS/Demo/Common/Minimal/GenQTest.c ****      *    in-depth knowledge of how to use FreeRTOS, it will also help       *
  14:../FreeRTOS/Demo/Common/Minimal/GenQTest.c ****      *    the FreeRTOS project to continue with its mission of providing     *
  15:../FreeRTOS/Demo/Common/Minimal/GenQTest.c ****      *    professional grade, cross platform, de facto standard solutions    *
  16:../FreeRTOS/Demo/Common/Minimal/GenQTest.c ****      *    for microcontrollers - completely free of charge!                  *
  17:../FreeRTOS/Demo/Common/Minimal/GenQTest.c ****      *                                                                       *
  18:../FreeRTOS/Demo/Common/Minimal/GenQTest.c ****      *    >>> See http://www.FreeRTOS.org/Documentation for details. <<<     *
  19:../FreeRTOS/Demo/Common/Minimal/GenQTest.c ****      *                                                                       *
  20:../FreeRTOS/Demo/Common/Minimal/GenQTest.c ****      *    Thank you for using FreeRTOS, and thank you for your support!      *
  21:../FreeRTOS/Demo/Common/Minimal/GenQTest.c ****      *                                                                       *
  22:../FreeRTOS/Demo/Common/Minimal/GenQTest.c ****     ***************************************************************************
  23:../FreeRTOS/Demo/Common/Minimal/GenQTest.c **** 
  24:../FreeRTOS/Demo/Common/Minimal/GenQTest.c **** 
  25:../FreeRTOS/Demo/Common/Minimal/GenQTest.c ****     This file is part of the FreeRTOS distribution.
  26:../FreeRTOS/Demo/Common/Minimal/GenQTest.c **** 
  27:../FreeRTOS/Demo/Common/Minimal/GenQTest.c ****     FreeRTOS is free software; you can redistribute it and/or modify it under
  28:../FreeRTOS/Demo/Common/Minimal/GenQTest.c ****     the terms of the GNU General Public License (version 2) as published by the
  29:../FreeRTOS/Demo/Common/Minimal/GenQTest.c ****     Free Software Foundation AND MODIFIED BY the FreeRTOS exception.
  30:../FreeRTOS/Demo/Common/Minimal/GenQTest.c ****     >>>NOTE<<< The modification to the GPL is included to allow you to
  31:../FreeRTOS/Demo/Common/Minimal/GenQTest.c ****     distribute a combined work that includes FreeRTOS without being obliged to
  32:../FreeRTOS/Demo/Common/Minimal/GenQTest.c ****     provide the source code for proprietary components outside of the FreeRTOS
  33:../FreeRTOS/Demo/Common/Minimal/GenQTest.c ****     kernel.  FreeRTOS is distributed in the hope that it will be useful, but
  34:../FreeRTOS/Demo/Common/Minimal/GenQTest.c ****     WITHOUT ANY WARRANTY; without even the implied warranty of MERCHANTABILITY
  35:../FreeRTOS/Demo/Common/Minimal/GenQTest.c ****     or FITNESS FOR A PARTICULAR PURPOSE.  See the GNU General Public License for
  36:../FreeRTOS/Demo/Common/Minimal/GenQTest.c ****     more details. You should have received a copy of the GNU General Public
  37:../FreeRTOS/Demo/Common/Minimal/GenQTest.c ****     License and the FreeRTOS license exception along with FreeRTOS; if not it
  38:../FreeRTOS/Demo/Common/Minimal/GenQTest.c ****     can be viewed here: http://www.freertos.org/a00114.html and also obtained
  39:../FreeRTOS/Demo/Common/Minimal/GenQTest.c ****     by writing to Richard Barry, contact details for whom are available on the
  40:../FreeRTOS/Demo/Common/Minimal/GenQTest.c ****     FreeRTOS WEB site.
  41:../FreeRTOS/Demo/Common/Minimal/GenQTest.c **** 
  42:../FreeRTOS/Demo/Common/Minimal/GenQTest.c ****     1 tab == 4 spaces!
  43:../FreeRTOS/Demo/Common/Minimal/GenQTest.c **** 
  44:../FreeRTOS/Demo/Common/Minimal/GenQTest.c ****     http://www.FreeRTOS.org - Documentation, latest information, license and
  45:../FreeRTOS/Demo/Common/Minimal/GenQTest.c ****     contact details.
  46:../FreeRTOS/Demo/Common/Minimal/GenQTest.c **** 
  47:../FreeRTOS/Demo/Common/Minimal/GenQTest.c ****     http://www.SafeRTOS.com - A version that is certified for use in safety
  48:../FreeRTOS/Demo/Common/Minimal/GenQTest.c ****     critical systems.
  49:../FreeRTOS/Demo/Common/Minimal/GenQTest.c **** 
  50:../FreeRTOS/Demo/Common/Minimal/GenQTest.c ****     http://www.OpenRTOS.com - Commercial support, development, porting,
  51:../FreeRTOS/Demo/Common/Minimal/GenQTest.c ****     licensing and training services.
  52:../FreeRTOS/Demo/Common/Minimal/GenQTest.c **** */
  53:../FreeRTOS/Demo/Common/Minimal/GenQTest.c **** 
  54:../FreeRTOS/Demo/Common/Minimal/GenQTest.c **** 
  55:../FreeRTOS/Demo/Common/Minimal/GenQTest.c **** /* 
  56:../FreeRTOS/Demo/Common/Minimal/GenQTest.c ****  * Tests the extra queue functionality introduced in FreeRTOS.org V4.5.0 - 
  57:../FreeRTOS/Demo/Common/Minimal/GenQTest.c ****  * including xQueueSendToFront(), xQueueSendToBack(), xQueuePeek() and 
  58:../FreeRTOS/Demo/Common/Minimal/GenQTest.c ****  * mutex behaviour. 
  59:../FreeRTOS/Demo/Common/Minimal/GenQTest.c ****  *
  60:../FreeRTOS/Demo/Common/Minimal/GenQTest.c ****  * See the comments above the prvSendFrontAndBackTest() and 
  61:../FreeRTOS/Demo/Common/Minimal/GenQTest.c ****  * prvLowPriorityMutexTask() prototypes below for more information.
  62:../FreeRTOS/Demo/Common/Minimal/GenQTest.c ****  */
  63:../FreeRTOS/Demo/Common/Minimal/GenQTest.c **** 
  64:../FreeRTOS/Demo/Common/Minimal/GenQTest.c **** 
  65:../FreeRTOS/Demo/Common/Minimal/GenQTest.c **** #include <stdlib.h>
  66:../FreeRTOS/Demo/Common/Minimal/GenQTest.c **** 
  67:../FreeRTOS/Demo/Common/Minimal/GenQTest.c **** /* Scheduler include files. */
  68:../FreeRTOS/Demo/Common/Minimal/GenQTest.c **** #include "FreeRTOS.h"
  69:../FreeRTOS/Demo/Common/Minimal/GenQTest.c **** #include "task.h"
  70:../FreeRTOS/Demo/Common/Minimal/GenQTest.c **** #include "queue.h"
  71:../FreeRTOS/Demo/Common/Minimal/GenQTest.c **** #include "semphr.h"
  72:../FreeRTOS/Demo/Common/Minimal/GenQTest.c **** 
  73:../FreeRTOS/Demo/Common/Minimal/GenQTest.c **** /* Demo program include files. */
  74:../FreeRTOS/Demo/Common/Minimal/GenQTest.c **** #include "GenQTest.h"
  75:../FreeRTOS/Demo/Common/Minimal/GenQTest.c **** 
  76:../FreeRTOS/Demo/Common/Minimal/GenQTest.c **** #define genqQUEUE_LENGTH		( 5 )
  77:../FreeRTOS/Demo/Common/Minimal/GenQTest.c **** #define genqNO_BLOCK			( 0 )
  78:../FreeRTOS/Demo/Common/Minimal/GenQTest.c **** 
  79:../FreeRTOS/Demo/Common/Minimal/GenQTest.c **** #define genqMUTEX_LOW_PRIORITY		( tskIDLE_PRIORITY )
  80:../FreeRTOS/Demo/Common/Minimal/GenQTest.c **** #define genqMUTEX_TEST_PRIORITY		( tskIDLE_PRIORITY + 1 )
  81:../FreeRTOS/Demo/Common/Minimal/GenQTest.c **** #define genqMUTEX_MEDIUM_PRIORITY	( tskIDLE_PRIORITY + 2 )
  82:../FreeRTOS/Demo/Common/Minimal/GenQTest.c **** #define genqMUTEX_HIGH_PRIORITY		( tskIDLE_PRIORITY + 3 )
  83:../FreeRTOS/Demo/Common/Minimal/GenQTest.c **** 
  84:../FreeRTOS/Demo/Common/Minimal/GenQTest.c **** /*-----------------------------------------------------------*/
  85:../FreeRTOS/Demo/Common/Minimal/GenQTest.c **** 
  86:../FreeRTOS/Demo/Common/Minimal/GenQTest.c **** /*
  87:../FreeRTOS/Demo/Common/Minimal/GenQTest.c ****  * Tests the behaviour of the xQueueSendToFront() and xQueueSendToBack()
  88:../FreeRTOS/Demo/Common/Minimal/GenQTest.c ****  * macros by using both to fill a queue, then reading from the queue to
  89:../FreeRTOS/Demo/Common/Minimal/GenQTest.c ****  * check the resultant queue order is as expected.  Queue data is also
  90:../FreeRTOS/Demo/Common/Minimal/GenQTest.c ****  * peeked.
  91:../FreeRTOS/Demo/Common/Minimal/GenQTest.c ****  */
  92:../FreeRTOS/Demo/Common/Minimal/GenQTest.c **** static void prvSendFrontAndBackTest( void *pvParameters );
  93:../FreeRTOS/Demo/Common/Minimal/GenQTest.c **** 
  94:../FreeRTOS/Demo/Common/Minimal/GenQTest.c **** /*
  95:../FreeRTOS/Demo/Common/Minimal/GenQTest.c ****  * The following three tasks are used to demonstrate the mutex behaviour.
  96:../FreeRTOS/Demo/Common/Minimal/GenQTest.c ****  * Each task is given a different priority to demonstrate the priority
  97:../FreeRTOS/Demo/Common/Minimal/GenQTest.c ****  * inheritance mechanism.
  98:../FreeRTOS/Demo/Common/Minimal/GenQTest.c ****  *
  99:../FreeRTOS/Demo/Common/Minimal/GenQTest.c ****  * The low priority task obtains a mutex.  After this a high priority task
 100:../FreeRTOS/Demo/Common/Minimal/GenQTest.c ****  * attempts to obtain the same mutex, causing its priority to be inherited
 101:../FreeRTOS/Demo/Common/Minimal/GenQTest.c ****  * by the low priority task.  The task with the inherited high priority then
 102:../FreeRTOS/Demo/Common/Minimal/GenQTest.c ****  * resumes a medium priority task to ensure it is not blocked by the medium
 103:../FreeRTOS/Demo/Common/Minimal/GenQTest.c ****  * priority task while it holds the inherited high priority.  Once the mutex
 104:../FreeRTOS/Demo/Common/Minimal/GenQTest.c ****  * is returned the task with the inherited priority returns to its original
 105:../FreeRTOS/Demo/Common/Minimal/GenQTest.c ****  * low priority, and is therefore immediately preempted by first the high
 106:../FreeRTOS/Demo/Common/Minimal/GenQTest.c ****  * priority task and then the medium prioroity task before it can continue.
 107:../FreeRTOS/Demo/Common/Minimal/GenQTest.c ****  */
 108:../FreeRTOS/Demo/Common/Minimal/GenQTest.c **** static void prvLowPriorityMutexTask( void *pvParameters );
 109:../FreeRTOS/Demo/Common/Minimal/GenQTest.c **** static void prvMediumPriorityMutexTask( void *pvParameters );
 110:../FreeRTOS/Demo/Common/Minimal/GenQTest.c **** static void prvHighPriorityMutexTask( void *pvParameters );
 111:../FreeRTOS/Demo/Common/Minimal/GenQTest.c **** 
 112:../FreeRTOS/Demo/Common/Minimal/GenQTest.c **** /*-----------------------------------------------------------*/
 113:../FreeRTOS/Demo/Common/Minimal/GenQTest.c **** 
 114:../FreeRTOS/Demo/Common/Minimal/GenQTest.c **** /* Flag that will be latched to pdTRUE should any unexpected behaviour be
 115:../FreeRTOS/Demo/Common/Minimal/GenQTest.c **** detected in any of the tasks. */
 116:../FreeRTOS/Demo/Common/Minimal/GenQTest.c **** static portBASE_TYPE xErrorDetected = pdFALSE;
 117:../FreeRTOS/Demo/Common/Minimal/GenQTest.c **** 
 118:../FreeRTOS/Demo/Common/Minimal/GenQTest.c **** /* Counters that are incremented on each cycle of a test.  This is used to
 119:../FreeRTOS/Demo/Common/Minimal/GenQTest.c **** detect a stalled task - a test that is no longer running. */
 120:../FreeRTOS/Demo/Common/Minimal/GenQTest.c **** static volatile unsigned portLONG ulLoopCounter = 0;
 121:../FreeRTOS/Demo/Common/Minimal/GenQTest.c **** static volatile unsigned portLONG ulLoopCounter2 = 0;
 122:../FreeRTOS/Demo/Common/Minimal/GenQTest.c **** 
 123:../FreeRTOS/Demo/Common/Minimal/GenQTest.c **** /* The variable that is guarded by the mutex in the mutex demo tasks. */
 124:../FreeRTOS/Demo/Common/Minimal/GenQTest.c **** static volatile unsigned portLONG ulGuardedVariable = 0;
 125:../FreeRTOS/Demo/Common/Minimal/GenQTest.c **** 
 126:../FreeRTOS/Demo/Common/Minimal/GenQTest.c **** /* Handles used in the mutext test to suspend and resume the high and medium
 127:../FreeRTOS/Demo/Common/Minimal/GenQTest.c **** priority mutex test tasks. */
 128:../FreeRTOS/Demo/Common/Minimal/GenQTest.c **** static xTaskHandle xHighPriorityMutexTask, xMediumPriorityMutexTask;
 129:../FreeRTOS/Demo/Common/Minimal/GenQTest.c **** 
 130:../FreeRTOS/Demo/Common/Minimal/GenQTest.c **** /*-----------------------------------------------------------*/
 131:../FreeRTOS/Demo/Common/Minimal/GenQTest.c **** 
 132:../FreeRTOS/Demo/Common/Minimal/GenQTest.c **** void vStartGenericQueueTasks( unsigned portBASE_TYPE uxPriority )
 133:../FreeRTOS/Demo/Common/Minimal/GenQTest.c **** {
 134:../FreeRTOS/Demo/Common/Minimal/GenQTest.c **** xQueueHandle xQueue;
 135:../FreeRTOS/Demo/Common/Minimal/GenQTest.c **** xSemaphoreHandle xMutex;
 136:../FreeRTOS/Demo/Common/Minimal/GenQTest.c **** 
 137:../FreeRTOS/Demo/Common/Minimal/GenQTest.c **** 	/* Create the queue that we are going to use for the
 138:../FreeRTOS/Demo/Common/Minimal/GenQTest.c **** 	prvSendFrontAndBackTest demo. */
 139:../FreeRTOS/Demo/Common/Minimal/GenQTest.c **** 	xQueue = xQueueCreate( genqQUEUE_LENGTH, sizeof( unsigned portLONG ) );
 140:../FreeRTOS/Demo/Common/Minimal/GenQTest.c **** 
 141:../FreeRTOS/Demo/Common/Minimal/GenQTest.c **** 	/* vQueueAddToRegistry() adds the queue to the queue registry, if one is
 142:../FreeRTOS/Demo/Common/Minimal/GenQTest.c **** 	in use.  The queue registry is provided as a means for kernel aware 
 143:../FreeRTOS/Demo/Common/Minimal/GenQTest.c **** 	debuggers to locate queues and has no purpose if a kernel aware debugger
 144:../FreeRTOS/Demo/Common/Minimal/GenQTest.c **** 	is not being used.  The call to vQueueAddToRegistry() will be removed
 145:../FreeRTOS/Demo/Common/Minimal/GenQTest.c **** 	by the pre-processor if configQUEUE_REGISTRY_SIZE is not defined or is 
 146:../FreeRTOS/Demo/Common/Minimal/GenQTest.c **** 	defined to be less than 1. */
 147:../FreeRTOS/Demo/Common/Minimal/GenQTest.c **** 	vQueueAddToRegistry( xQueue, ( signed portCHAR * ) "Gen_Queue_Test" );
 148:../FreeRTOS/Demo/Common/Minimal/GenQTest.c **** 
 149:../FreeRTOS/Demo/Common/Minimal/GenQTest.c **** 	/* Create the demo task and pass it the queue just created.  We are
 150:../FreeRTOS/Demo/Common/Minimal/GenQTest.c **** 	passing the queue handle by value so it does not matter that it is
 151:../FreeRTOS/Demo/Common/Minimal/GenQTest.c **** 	declared on the stack here. */
 152:../FreeRTOS/Demo/Common/Minimal/GenQTest.c **** 	xTaskCreate( prvSendFrontAndBackTest, ( signed portCHAR * )"GenQ", configMINIMAL_STACK_SIZE, ( voi
 153:../FreeRTOS/Demo/Common/Minimal/GenQTest.c **** 
 154:../FreeRTOS/Demo/Common/Minimal/GenQTest.c **** 	/* Create the mutex used by the prvMutexTest task. */
 155:../FreeRTOS/Demo/Common/Minimal/GenQTest.c **** 	xMutex = xSemaphoreCreateMutex();
 156:../FreeRTOS/Demo/Common/Minimal/GenQTest.c **** 
 157:../FreeRTOS/Demo/Common/Minimal/GenQTest.c **** 	/* vQueueAddToRegistry() adds the mutex to the registry, if one is
 158:../FreeRTOS/Demo/Common/Minimal/GenQTest.c **** 	in use.  The registry is provided as a means for kernel aware 
 159:../FreeRTOS/Demo/Common/Minimal/GenQTest.c **** 	debuggers to locate mutexes and has no purpose if a kernel aware debugger
 160:../FreeRTOS/Demo/Common/Minimal/GenQTest.c **** 	is not being used.  The call to vQueueAddToRegistry() will be removed
 161:../FreeRTOS/Demo/Common/Minimal/GenQTest.c **** 	by the pre-processor if configQUEUE_REGISTRY_SIZE is not defined or is 
 162:../FreeRTOS/Demo/Common/Minimal/GenQTest.c **** 	defined to be less than 1. */
 163:../FreeRTOS/Demo/Common/Minimal/GenQTest.c **** 	vQueueAddToRegistry( ( xQueueHandle ) xMutex, ( signed portCHAR * ) "Gen_Queue_Mutex" );
 164:../FreeRTOS/Demo/Common/Minimal/GenQTest.c **** 
 165:../FreeRTOS/Demo/Common/Minimal/GenQTest.c **** 	/* Create the mutex demo tasks and pass it the mutex just created.  We are
 166:../FreeRTOS/Demo/Common/Minimal/GenQTest.c **** 	passing the mutex handle by value so it does not matter that it is declared
 167:../FreeRTOS/Demo/Common/Minimal/GenQTest.c **** 	on the stack here. */
 168:../FreeRTOS/Demo/Common/Minimal/GenQTest.c **** 	xTaskCreate( prvLowPriorityMutexTask, ( signed portCHAR * )"MuLow", configMINIMAL_STACK_SIZE, ( vo
 169:../FreeRTOS/Demo/Common/Minimal/GenQTest.c **** 	xTaskCreate( prvMediumPriorityMutexTask, ( signed portCHAR * )"MuMed", configMINIMAL_STACK_SIZE, N
 170:../FreeRTOS/Demo/Common/Minimal/GenQTest.c **** 	xTaskCreate( prvHighPriorityMutexTask, ( signed portCHAR * )"MuHigh", configMINIMAL_STACK_SIZE, ( 
 171:../FreeRTOS/Demo/Common/Minimal/GenQTest.c **** }
 172:../FreeRTOS/Demo/Common/Minimal/GenQTest.c **** /*-----------------------------------------------------------*/
 173:../FreeRTOS/Demo/Common/Minimal/GenQTest.c **** 
 174:../FreeRTOS/Demo/Common/Minimal/GenQTest.c **** static void prvSendFrontAndBackTest( void *pvParameters )
 175:../FreeRTOS/Demo/Common/Minimal/GenQTest.c **** {
 176:../FreeRTOS/Demo/Common/Minimal/GenQTest.c **** unsigned portLONG ulData, ulData2;
 177:../FreeRTOS/Demo/Common/Minimal/GenQTest.c **** xQueueHandle xQueue;
 178:../FreeRTOS/Demo/Common/Minimal/GenQTest.c **** 
 179:../FreeRTOS/Demo/Common/Minimal/GenQTest.c **** 	#ifdef USE_STDIO
 180:../FreeRTOS/Demo/Common/Minimal/GenQTest.c **** 	void vPrintDisplayMessage( const portCHAR * const * ppcMessageToSend );
 181:../FreeRTOS/Demo/Common/Minimal/GenQTest.c **** 	
 182:../FreeRTOS/Demo/Common/Minimal/GenQTest.c **** 		const portCHAR * const pcTaskStartMsg = "Queue SendToFront/SendToBack/Peek test started.\r\n";
 183:../FreeRTOS/Demo/Common/Minimal/GenQTest.c **** 
 184:../FreeRTOS/Demo/Common/Minimal/GenQTest.c **** 		/* Queue a message for printing to say the task has started. */
 185:../FreeRTOS/Demo/Common/Minimal/GenQTest.c **** 		vPrintDisplayMessage( &pcTaskStartMsg );
 186:../FreeRTOS/Demo/Common/Minimal/GenQTest.c **** 	#endif
 187:../FreeRTOS/Demo/Common/Minimal/GenQTest.c **** 
 188:../FreeRTOS/Demo/Common/Minimal/GenQTest.c **** 	xQueue = ( xQueueHandle ) pvParameters;
 189:../FreeRTOS/Demo/Common/Minimal/GenQTest.c **** 
 190:../FreeRTOS/Demo/Common/Minimal/GenQTest.c **** 	for( ;; )
 191:../FreeRTOS/Demo/Common/Minimal/GenQTest.c **** 	{
 192:../FreeRTOS/Demo/Common/Minimal/GenQTest.c **** 		/* The queue is empty, so sending an item to the back of the queue
 193:../FreeRTOS/Demo/Common/Minimal/GenQTest.c **** 		should have the same efect as sending it to the front of the queue.
 194:../FreeRTOS/Demo/Common/Minimal/GenQTest.c **** 
 195:../FreeRTOS/Demo/Common/Minimal/GenQTest.c **** 		First send to the front and check everything is as expected. */
 196:../FreeRTOS/Demo/Common/Minimal/GenQTest.c **** 		xQueueSendToFront( xQueue, ( void * ) &ulLoopCounter, genqNO_BLOCK );
 197:../FreeRTOS/Demo/Common/Minimal/GenQTest.c **** 
 198:../FreeRTOS/Demo/Common/Minimal/GenQTest.c **** 		if( uxQueueMessagesWaiting( xQueue ) != 1 )
 199:../FreeRTOS/Demo/Common/Minimal/GenQTest.c **** 		{
 200:../FreeRTOS/Demo/Common/Minimal/GenQTest.c **** 			xErrorDetected = pdTRUE;
 201:../FreeRTOS/Demo/Common/Minimal/GenQTest.c **** 		}
 202:../FreeRTOS/Demo/Common/Minimal/GenQTest.c **** 
 203:../FreeRTOS/Demo/Common/Minimal/GenQTest.c **** 		if( xQueueReceive( xQueue, ( void * ) &ulData, genqNO_BLOCK ) != pdPASS )
 204:../FreeRTOS/Demo/Common/Minimal/GenQTest.c **** 		{
 205:../FreeRTOS/Demo/Common/Minimal/GenQTest.c **** 			xErrorDetected = pdTRUE;
 206:../FreeRTOS/Demo/Common/Minimal/GenQTest.c **** 		}
 207:../FreeRTOS/Demo/Common/Minimal/GenQTest.c **** 
 208:../FreeRTOS/Demo/Common/Minimal/GenQTest.c **** 		/* The data we sent to the queue should equal the data we just received
 209:../FreeRTOS/Demo/Common/Minimal/GenQTest.c **** 		from the queue. */
 210:../FreeRTOS/Demo/Common/Minimal/GenQTest.c **** 		if( ulLoopCounter != ulData )
 211:../FreeRTOS/Demo/Common/Minimal/GenQTest.c **** 		{
 212:../FreeRTOS/Demo/Common/Minimal/GenQTest.c **** 			xErrorDetected = pdTRUE;
 213:../FreeRTOS/Demo/Common/Minimal/GenQTest.c **** 		}
 214:../FreeRTOS/Demo/Common/Minimal/GenQTest.c **** 
 215:../FreeRTOS/Demo/Common/Minimal/GenQTest.c **** 		/* Then do the same, sending the data to the back, checking everything
 216:../FreeRTOS/Demo/Common/Minimal/GenQTest.c **** 		is as expected. */
 217:../FreeRTOS/Demo/Common/Minimal/GenQTest.c **** 		if( uxQueueMessagesWaiting( xQueue ) != 0 )
 218:../FreeRTOS/Demo/Common/Minimal/GenQTest.c **** 		{
 219:../FreeRTOS/Demo/Common/Minimal/GenQTest.c **** 			xErrorDetected = pdTRUE;
 220:../FreeRTOS/Demo/Common/Minimal/GenQTest.c **** 		}
 221:../FreeRTOS/Demo/Common/Minimal/GenQTest.c **** 
 222:../FreeRTOS/Demo/Common/Minimal/GenQTest.c **** 		xQueueSendToBack( xQueue, ( void * ) &ulLoopCounter, genqNO_BLOCK );
 223:../FreeRTOS/Demo/Common/Minimal/GenQTest.c **** 
 224:../FreeRTOS/Demo/Common/Minimal/GenQTest.c **** 		if( uxQueueMessagesWaiting( xQueue ) != 1 )
 225:../FreeRTOS/Demo/Common/Minimal/GenQTest.c **** 		{
 226:../FreeRTOS/Demo/Common/Minimal/GenQTest.c **** 			xErrorDetected = pdTRUE;
 227:../FreeRTOS/Demo/Common/Minimal/GenQTest.c **** 		}
 228:../FreeRTOS/Demo/Common/Minimal/GenQTest.c **** 
 229:../FreeRTOS/Demo/Common/Minimal/GenQTest.c **** 		if( xQueueReceive( xQueue, ( void * ) &ulData, genqNO_BLOCK ) != pdPASS )
 230:../FreeRTOS/Demo/Common/Minimal/GenQTest.c **** 		{
 231:../FreeRTOS/Demo/Common/Minimal/GenQTest.c **** 			xErrorDetected = pdTRUE;
 232:../FreeRTOS/Demo/Common/Minimal/GenQTest.c **** 		}
 233:../FreeRTOS/Demo/Common/Minimal/GenQTest.c **** 
 234:../FreeRTOS/Demo/Common/Minimal/GenQTest.c **** 		if( uxQueueMessagesWaiting( xQueue ) != 0 )
 235:../FreeRTOS/Demo/Common/Minimal/GenQTest.c **** 		{
 236:../FreeRTOS/Demo/Common/Minimal/GenQTest.c **** 			xErrorDetected = pdTRUE;
 237:../FreeRTOS/Demo/Common/Minimal/GenQTest.c **** 		}
 238:../FreeRTOS/Demo/Common/Minimal/GenQTest.c **** 
 239:../FreeRTOS/Demo/Common/Minimal/GenQTest.c **** 		/* The data we sent to the queue should equal the data we just received
 240:../FreeRTOS/Demo/Common/Minimal/GenQTest.c **** 		from the queue. */
 241:../FreeRTOS/Demo/Common/Minimal/GenQTest.c **** 		if( ulLoopCounter != ulData )
 242:../FreeRTOS/Demo/Common/Minimal/GenQTest.c **** 		{
 243:../FreeRTOS/Demo/Common/Minimal/GenQTest.c **** 			xErrorDetected = pdTRUE;
 244:../FreeRTOS/Demo/Common/Minimal/GenQTest.c **** 		}
 245:../FreeRTOS/Demo/Common/Minimal/GenQTest.c **** 
 246:../FreeRTOS/Demo/Common/Minimal/GenQTest.c **** 		#if configUSE_PREEMPTION == 0
 247:../FreeRTOS/Demo/Common/Minimal/GenQTest.c **** 			taskYIELD();
 248:../FreeRTOS/Demo/Common/Minimal/GenQTest.c **** 		#endif
 249:../FreeRTOS/Demo/Common/Minimal/GenQTest.c **** 
 250:../FreeRTOS/Demo/Common/Minimal/GenQTest.c **** 
 251:../FreeRTOS/Demo/Common/Minimal/GenQTest.c **** 
 252:../FreeRTOS/Demo/Common/Minimal/GenQTest.c **** 		/* Place 2, 3, 4 into the queue, adding items to the back of the queue. */
 253:../FreeRTOS/Demo/Common/Minimal/GenQTest.c **** 		for( ulData = 2; ulData < 5; ulData++ )
 254:../FreeRTOS/Demo/Common/Minimal/GenQTest.c **** 		{
 255:../FreeRTOS/Demo/Common/Minimal/GenQTest.c **** 			xQueueSendToBack( xQueue, ( void * ) &ulData, genqNO_BLOCK );
 256:../FreeRTOS/Demo/Common/Minimal/GenQTest.c **** 		}
 257:../FreeRTOS/Demo/Common/Minimal/GenQTest.c **** 
 258:../FreeRTOS/Demo/Common/Minimal/GenQTest.c **** 		/* Now the order in the queue should be 2, 3, 4, with 2 being the first
 259:../FreeRTOS/Demo/Common/Minimal/GenQTest.c **** 		thing to be read out.  Now add 1 then 0 to the front of the queue. */
 260:../FreeRTOS/Demo/Common/Minimal/GenQTest.c **** 		if( uxQueueMessagesWaiting( xQueue ) != 3 )
 261:../FreeRTOS/Demo/Common/Minimal/GenQTest.c **** 		{
 262:../FreeRTOS/Demo/Common/Minimal/GenQTest.c **** 			xErrorDetected = pdTRUE;
 263:../FreeRTOS/Demo/Common/Minimal/GenQTest.c **** 		}
 264:../FreeRTOS/Demo/Common/Minimal/GenQTest.c **** 		ulData = 1;
 265:../FreeRTOS/Demo/Common/Minimal/GenQTest.c **** 		xQueueSendToFront( xQueue, ( void * ) &ulData, genqNO_BLOCK );
 266:../FreeRTOS/Demo/Common/Minimal/GenQTest.c **** 		ulData = 0;
 267:../FreeRTOS/Demo/Common/Minimal/GenQTest.c **** 		xQueueSendToFront( xQueue, ( void * ) &ulData, genqNO_BLOCK );
 268:../FreeRTOS/Demo/Common/Minimal/GenQTest.c **** 
 269:../FreeRTOS/Demo/Common/Minimal/GenQTest.c **** 		/* Now the queue should be full, and when we read the data out we
 270:../FreeRTOS/Demo/Common/Minimal/GenQTest.c **** 		should receive 0, 1, 2, 3, 4. */
 271:../FreeRTOS/Demo/Common/Minimal/GenQTest.c **** 		if( uxQueueMessagesWaiting( xQueue ) != 5 )
 272:../FreeRTOS/Demo/Common/Minimal/GenQTest.c **** 		{
 273:../FreeRTOS/Demo/Common/Minimal/GenQTest.c **** 			xErrorDetected = pdTRUE;
 274:../FreeRTOS/Demo/Common/Minimal/GenQTest.c **** 		}
 275:../FreeRTOS/Demo/Common/Minimal/GenQTest.c **** 
 276:../FreeRTOS/Demo/Common/Minimal/GenQTest.c **** 		if( xQueueSendToFront( xQueue, ( void * ) &ulData, genqNO_BLOCK ) != errQUEUE_FULL )
 277:../FreeRTOS/Demo/Common/Minimal/GenQTest.c **** 		{
 278:../FreeRTOS/Demo/Common/Minimal/GenQTest.c **** 			xErrorDetected = pdTRUE;
 279:../FreeRTOS/Demo/Common/Minimal/GenQTest.c **** 		}
 280:../FreeRTOS/Demo/Common/Minimal/GenQTest.c **** 
 281:../FreeRTOS/Demo/Common/Minimal/GenQTest.c **** 		if( xQueueSendToBack( xQueue, ( void * ) &ulData, genqNO_BLOCK ) != errQUEUE_FULL )
 282:../FreeRTOS/Demo/Common/Minimal/GenQTest.c **** 		{
 283:../FreeRTOS/Demo/Common/Minimal/GenQTest.c **** 			xErrorDetected = pdTRUE;
 284:../FreeRTOS/Demo/Common/Minimal/GenQTest.c **** 		}
 285:../FreeRTOS/Demo/Common/Minimal/GenQTest.c **** 
 286:../FreeRTOS/Demo/Common/Minimal/GenQTest.c **** 		#if configUSE_PREEMPTION == 0
 287:../FreeRTOS/Demo/Common/Minimal/GenQTest.c **** 			taskYIELD();
 288:../FreeRTOS/Demo/Common/Minimal/GenQTest.c **** 		#endif
 289:../FreeRTOS/Demo/Common/Minimal/GenQTest.c **** 
 290:../FreeRTOS/Demo/Common/Minimal/GenQTest.c **** 		/* Check the data we read out is in the expected order. */
 291:../FreeRTOS/Demo/Common/Minimal/GenQTest.c **** 		for( ulData = 0; ulData < genqQUEUE_LENGTH; ulData++ )
 292:../FreeRTOS/Demo/Common/Minimal/GenQTest.c **** 		{
 293:../FreeRTOS/Demo/Common/Minimal/GenQTest.c **** 			/* Try peeking the data first. */
 294:../FreeRTOS/Demo/Common/Minimal/GenQTest.c **** 			if( xQueuePeek( xQueue, &ulData2, genqNO_BLOCK ) != pdPASS )
 295:../FreeRTOS/Demo/Common/Minimal/GenQTest.c **** 			{
 296:../FreeRTOS/Demo/Common/Minimal/GenQTest.c **** 				xErrorDetected = pdTRUE;
 297:../FreeRTOS/Demo/Common/Minimal/GenQTest.c **** 			}
 298:../FreeRTOS/Demo/Common/Minimal/GenQTest.c **** 
 299:../FreeRTOS/Demo/Common/Minimal/GenQTest.c **** 			if( ulData != ulData2 )
 300:../FreeRTOS/Demo/Common/Minimal/GenQTest.c **** 			{
 301:../FreeRTOS/Demo/Common/Minimal/GenQTest.c **** 				xErrorDetected = pdTRUE;
 302:../FreeRTOS/Demo/Common/Minimal/GenQTest.c **** 			}
 303:../FreeRTOS/Demo/Common/Minimal/GenQTest.c **** 			
 304:../FreeRTOS/Demo/Common/Minimal/GenQTest.c **** 
 305:../FreeRTOS/Demo/Common/Minimal/GenQTest.c **** 			/* Now try receiving the data for real.  The value should be the
 306:../FreeRTOS/Demo/Common/Minimal/GenQTest.c **** 			same.  Clobber the value first so we know we really received it. */
 307:../FreeRTOS/Demo/Common/Minimal/GenQTest.c **** 			ulData2 = ~ulData2;
 308:../FreeRTOS/Demo/Common/Minimal/GenQTest.c **** 			if( xQueueReceive( xQueue, &ulData2, genqNO_BLOCK ) != pdPASS )
 309:../FreeRTOS/Demo/Common/Minimal/GenQTest.c **** 			{
 310:../FreeRTOS/Demo/Common/Minimal/GenQTest.c **** 				xErrorDetected = pdTRUE;
 311:../FreeRTOS/Demo/Common/Minimal/GenQTest.c **** 			}
 312:../FreeRTOS/Demo/Common/Minimal/GenQTest.c **** 
 313:../FreeRTOS/Demo/Common/Minimal/GenQTest.c **** 			if( ulData != ulData2 )
 314:../FreeRTOS/Demo/Common/Minimal/GenQTest.c **** 			{
 315:../FreeRTOS/Demo/Common/Minimal/GenQTest.c **** 				xErrorDetected = pdTRUE;
 316:../FreeRTOS/Demo/Common/Minimal/GenQTest.c **** 			}
 317:../FreeRTOS/Demo/Common/Minimal/GenQTest.c **** 		}
 318:../FreeRTOS/Demo/Common/Minimal/GenQTest.c **** 
 319:../FreeRTOS/Demo/Common/Minimal/GenQTest.c **** 		/* The queue should now be empty again. */
 320:../FreeRTOS/Demo/Common/Minimal/GenQTest.c **** 		if( uxQueueMessagesWaiting( xQueue ) != 0 )
 321:../FreeRTOS/Demo/Common/Minimal/GenQTest.c **** 		{
 322:../FreeRTOS/Demo/Common/Minimal/GenQTest.c **** 			xErrorDetected = pdTRUE;
 323:../FreeRTOS/Demo/Common/Minimal/GenQTest.c **** 		}
 324:../FreeRTOS/Demo/Common/Minimal/GenQTest.c **** 
 325:../FreeRTOS/Demo/Common/Minimal/GenQTest.c **** 		#if configUSE_PREEMPTION == 0
 326:../FreeRTOS/Demo/Common/Minimal/GenQTest.c **** 			taskYIELD();
 327:../FreeRTOS/Demo/Common/Minimal/GenQTest.c **** 		#endif
 328:../FreeRTOS/Demo/Common/Minimal/GenQTest.c **** 
 329:../FreeRTOS/Demo/Common/Minimal/GenQTest.c **** 
 330:../FreeRTOS/Demo/Common/Minimal/GenQTest.c **** 		/* Our queue is empty once more, add 10, 11 to the back. */
 331:../FreeRTOS/Demo/Common/Minimal/GenQTest.c **** 		ulData = 10;
 332:../FreeRTOS/Demo/Common/Minimal/GenQTest.c **** 		if( xQueueSend( xQueue, &ulData, genqNO_BLOCK ) != pdPASS )
 333:../FreeRTOS/Demo/Common/Minimal/GenQTest.c **** 		{
 334:../FreeRTOS/Demo/Common/Minimal/GenQTest.c **** 			xErrorDetected = pdTRUE;
 335:../FreeRTOS/Demo/Common/Minimal/GenQTest.c **** 		}
 336:../FreeRTOS/Demo/Common/Minimal/GenQTest.c **** 		ulData = 11;
 337:../FreeRTOS/Demo/Common/Minimal/GenQTest.c **** 		if( xQueueSend( xQueue, &ulData, genqNO_BLOCK ) != pdPASS )
 338:../FreeRTOS/Demo/Common/Minimal/GenQTest.c **** 		{
 339:../FreeRTOS/Demo/Common/Minimal/GenQTest.c **** 			xErrorDetected = pdTRUE;
 340:../FreeRTOS/Demo/Common/Minimal/GenQTest.c **** 		}
 341:../FreeRTOS/Demo/Common/Minimal/GenQTest.c **** 
 342:../FreeRTOS/Demo/Common/Minimal/GenQTest.c **** 		if( uxQueueMessagesWaiting( xQueue ) != 2 )
 343:../FreeRTOS/Demo/Common/Minimal/GenQTest.c **** 		{
 344:../FreeRTOS/Demo/Common/Minimal/GenQTest.c **** 			xErrorDetected = pdTRUE;
 345:../FreeRTOS/Demo/Common/Minimal/GenQTest.c **** 		}
 346:../FreeRTOS/Demo/Common/Minimal/GenQTest.c **** 
 347:../FreeRTOS/Demo/Common/Minimal/GenQTest.c **** 		/* Now we should have 10, 11 in the queue.  Add 7, 8, 9 to the
 348:../FreeRTOS/Demo/Common/Minimal/GenQTest.c **** 		front. */
 349:../FreeRTOS/Demo/Common/Minimal/GenQTest.c **** 		for( ulData = 9; ulData >= 7; ulData-- )
 350:../FreeRTOS/Demo/Common/Minimal/GenQTest.c **** 		{
 351:../FreeRTOS/Demo/Common/Minimal/GenQTest.c **** 			if( xQueueSendToFront( xQueue, ( void * ) &ulData, genqNO_BLOCK ) != pdPASS )
 352:../FreeRTOS/Demo/Common/Minimal/GenQTest.c **** 			{
 353:../FreeRTOS/Demo/Common/Minimal/GenQTest.c **** 				xErrorDetected = pdTRUE;
 354:../FreeRTOS/Demo/Common/Minimal/GenQTest.c **** 			}
 355:../FreeRTOS/Demo/Common/Minimal/GenQTest.c **** 		}
 356:../FreeRTOS/Demo/Common/Minimal/GenQTest.c **** 
 357:../FreeRTOS/Demo/Common/Minimal/GenQTest.c **** 		/* Now check that the queue is full, and that receiving data provides
 358:../FreeRTOS/Demo/Common/Minimal/GenQTest.c **** 		the expected sequence of 7, 8, 9, 10, 11. */
 359:../FreeRTOS/Demo/Common/Minimal/GenQTest.c **** 		if( uxQueueMessagesWaiting( xQueue ) != 5 )
 360:../FreeRTOS/Demo/Common/Minimal/GenQTest.c **** 		{
 361:../FreeRTOS/Demo/Common/Minimal/GenQTest.c **** 			xErrorDetected = pdTRUE;
 362:../FreeRTOS/Demo/Common/Minimal/GenQTest.c **** 		}
 363:../FreeRTOS/Demo/Common/Minimal/GenQTest.c **** 
 364:../FreeRTOS/Demo/Common/Minimal/GenQTest.c **** 		if( xQueueSendToFront( xQueue, ( void * ) &ulData, genqNO_BLOCK ) != errQUEUE_FULL )
 365:../FreeRTOS/Demo/Common/Minimal/GenQTest.c **** 		{
 366:../FreeRTOS/Demo/Common/Minimal/GenQTest.c **** 			xErrorDetected = pdTRUE;
 367:../FreeRTOS/Demo/Common/Minimal/GenQTest.c **** 		}
 368:../FreeRTOS/Demo/Common/Minimal/GenQTest.c **** 
 369:../FreeRTOS/Demo/Common/Minimal/GenQTest.c **** 		if( xQueueSendToBack( xQueue, ( void * ) &ulData, genqNO_BLOCK ) != errQUEUE_FULL )
 370:../FreeRTOS/Demo/Common/Minimal/GenQTest.c **** 		{
 371:../FreeRTOS/Demo/Common/Minimal/GenQTest.c **** 			xErrorDetected = pdTRUE;
 372:../FreeRTOS/Demo/Common/Minimal/GenQTest.c **** 		}
 373:../FreeRTOS/Demo/Common/Minimal/GenQTest.c **** 
 374:../FreeRTOS/Demo/Common/Minimal/GenQTest.c **** 		#if configUSE_PREEMPTION == 0
 375:../FreeRTOS/Demo/Common/Minimal/GenQTest.c **** 			taskYIELD();
 376:../FreeRTOS/Demo/Common/Minimal/GenQTest.c **** 		#endif
 377:../FreeRTOS/Demo/Common/Minimal/GenQTest.c **** 
 378:../FreeRTOS/Demo/Common/Minimal/GenQTest.c **** 		/* Check the data we read out is in the expected order. */
 379:../FreeRTOS/Demo/Common/Minimal/GenQTest.c **** 		for( ulData = 7; ulData < ( 7 + genqQUEUE_LENGTH ); ulData++ )
 380:../FreeRTOS/Demo/Common/Minimal/GenQTest.c **** 		{
 381:../FreeRTOS/Demo/Common/Minimal/GenQTest.c **** 			if( xQueueReceive( xQueue, &ulData2, genqNO_BLOCK ) != pdPASS )
 382:../FreeRTOS/Demo/Common/Minimal/GenQTest.c **** 			{
 383:../FreeRTOS/Demo/Common/Minimal/GenQTest.c **** 				xErrorDetected = pdTRUE;
 384:../FreeRTOS/Demo/Common/Minimal/GenQTest.c **** 			}
 385:../FreeRTOS/Demo/Common/Minimal/GenQTest.c **** 
 386:../FreeRTOS/Demo/Common/Minimal/GenQTest.c **** 			if( ulData != ulData2 )
 387:../FreeRTOS/Demo/Common/Minimal/GenQTest.c **** 			{
 388:../FreeRTOS/Demo/Common/Minimal/GenQTest.c **** 				xErrorDetected = pdTRUE;
 389:../FreeRTOS/Demo/Common/Minimal/GenQTest.c **** 			}
 390:../FreeRTOS/Demo/Common/Minimal/GenQTest.c **** 		}
 391:../FreeRTOS/Demo/Common/Minimal/GenQTest.c **** 
 392:../FreeRTOS/Demo/Common/Minimal/GenQTest.c **** 		if( uxQueueMessagesWaiting( xQueue ) != 0 )
 393:../FreeRTOS/Demo/Common/Minimal/GenQTest.c **** 		{
 394:../FreeRTOS/Demo/Common/Minimal/GenQTest.c **** 			xErrorDetected = pdTRUE;
 395:../FreeRTOS/Demo/Common/Minimal/GenQTest.c **** 		}
 396:../FreeRTOS/Demo/Common/Minimal/GenQTest.c **** 
 397:../FreeRTOS/Demo/Common/Minimal/GenQTest.c **** 		ulLoopCounter++;
 398:../FreeRTOS/Demo/Common/Minimal/GenQTest.c **** 	}
 399:../FreeRTOS/Demo/Common/Minimal/GenQTest.c **** }
 400:../FreeRTOS/Demo/Common/Minimal/GenQTest.c **** /*-----------------------------------------------------------*/
 401:../FreeRTOS/Demo/Common/Minimal/GenQTest.c **** 
 402:../FreeRTOS/Demo/Common/Minimal/GenQTest.c **** static void prvLowPriorityMutexTask( void *pvParameters )
 403:../FreeRTOS/Demo/Common/Minimal/GenQTest.c **** {
 404:../FreeRTOS/Demo/Common/Minimal/GenQTest.c **** xSemaphoreHandle xMutex = ( xSemaphoreHandle ) pvParameters;
 405:../FreeRTOS/Demo/Common/Minimal/GenQTest.c **** 
 406:../FreeRTOS/Demo/Common/Minimal/GenQTest.c **** 	#ifdef USE_STDIO
 407:../FreeRTOS/Demo/Common/Minimal/GenQTest.c **** 	void vPrintDisplayMessage( const portCHAR * const * ppcMessageToSend );
 408:../FreeRTOS/Demo/Common/Minimal/GenQTest.c **** 	
 409:../FreeRTOS/Demo/Common/Minimal/GenQTest.c **** 		const portCHAR * const pcTaskStartMsg = "Mutex with priority inheritance test started.\r\n";
 410:../FreeRTOS/Demo/Common/Minimal/GenQTest.c **** 
 411:../FreeRTOS/Demo/Common/Minimal/GenQTest.c **** 		/* Queue a message for printing to say the task has started. */
 412:../FreeRTOS/Demo/Common/Minimal/GenQTest.c **** 		vPrintDisplayMessage( &pcTaskStartMsg );
 413:../FreeRTOS/Demo/Common/Minimal/GenQTest.c **** 	#endif
 414:../FreeRTOS/Demo/Common/Minimal/GenQTest.c **** 
 415:../FreeRTOS/Demo/Common/Minimal/GenQTest.c **** 	for( ;; )
 416:../FreeRTOS/Demo/Common/Minimal/GenQTest.c **** 	{
 417:../FreeRTOS/Demo/Common/Minimal/GenQTest.c **** 		/* Take the mutex.  It should be available now. */
 418:../FreeRTOS/Demo/Common/Minimal/GenQTest.c **** 		if( xSemaphoreTake( xMutex, genqNO_BLOCK ) != pdPASS )
 419:../FreeRTOS/Demo/Common/Minimal/GenQTest.c **** 		{
 420:../FreeRTOS/Demo/Common/Minimal/GenQTest.c **** 			xErrorDetected = pdTRUE;
 421:../FreeRTOS/Demo/Common/Minimal/GenQTest.c **** 		}
 422:../FreeRTOS/Demo/Common/Minimal/GenQTest.c **** 
 423:../FreeRTOS/Demo/Common/Minimal/GenQTest.c **** 		/* Set our guarded variable to a known start value. */
 424:../FreeRTOS/Demo/Common/Minimal/GenQTest.c **** 		ulGuardedVariable = 0;
 425:../FreeRTOS/Demo/Common/Minimal/GenQTest.c **** 
 426:../FreeRTOS/Demo/Common/Minimal/GenQTest.c **** 		/* Our priority should be as per that assigned when the task was
 427:../FreeRTOS/Demo/Common/Minimal/GenQTest.c **** 		created. */
 428:../FreeRTOS/Demo/Common/Minimal/GenQTest.c **** 		if( uxTaskPriorityGet( NULL ) != genqMUTEX_LOW_PRIORITY )
 429:../FreeRTOS/Demo/Common/Minimal/GenQTest.c **** 		{
 430:../FreeRTOS/Demo/Common/Minimal/GenQTest.c **** 			xErrorDetected = pdTRUE;
 431:../FreeRTOS/Demo/Common/Minimal/GenQTest.c **** 		}
 432:../FreeRTOS/Demo/Common/Minimal/GenQTest.c **** 
 433:../FreeRTOS/Demo/Common/Minimal/GenQTest.c **** 		/* Now unsuspend the high priority task.  This will attempt to take the
 434:../FreeRTOS/Demo/Common/Minimal/GenQTest.c **** 		mutex, and block when it finds it cannot obtain it. */
 435:../FreeRTOS/Demo/Common/Minimal/GenQTest.c **** 		vTaskResume( xHighPriorityMutexTask );
 436:../FreeRTOS/Demo/Common/Minimal/GenQTest.c **** 
 437:../FreeRTOS/Demo/Common/Minimal/GenQTest.c **** 		/* We should now have inherited the prioritoy of the high priority task,
 438:../FreeRTOS/Demo/Common/Minimal/GenQTest.c **** 		as by now it will have attempted to get the mutex. */
 439:../FreeRTOS/Demo/Common/Minimal/GenQTest.c **** 		if( uxTaskPriorityGet( NULL ) != genqMUTEX_HIGH_PRIORITY )
 440:../FreeRTOS/Demo/Common/Minimal/GenQTest.c **** 		{
 441:../FreeRTOS/Demo/Common/Minimal/GenQTest.c **** 			xErrorDetected = pdTRUE;
 442:../FreeRTOS/Demo/Common/Minimal/GenQTest.c **** 		}
 443:../FreeRTOS/Demo/Common/Minimal/GenQTest.c **** 
 444:../FreeRTOS/Demo/Common/Minimal/GenQTest.c **** 		/* We can attempt to set our priority to the test priority - between the
 445:../FreeRTOS/Demo/Common/Minimal/GenQTest.c **** 		idle priority and the medium/high test priorities, but our actual
 446:../FreeRTOS/Demo/Common/Minimal/GenQTest.c **** 		prioroity should remain at the high priority. */
 447:../FreeRTOS/Demo/Common/Minimal/GenQTest.c **** 		vTaskPrioritySet( NULL, genqMUTEX_TEST_PRIORITY );
 448:../FreeRTOS/Demo/Common/Minimal/GenQTest.c **** 		if( uxTaskPriorityGet( NULL ) != genqMUTEX_HIGH_PRIORITY )
 449:../FreeRTOS/Demo/Common/Minimal/GenQTest.c **** 		{
 450:../FreeRTOS/Demo/Common/Minimal/GenQTest.c **** 			xErrorDetected = pdTRUE;
 451:../FreeRTOS/Demo/Common/Minimal/GenQTest.c **** 		}
 452:../FreeRTOS/Demo/Common/Minimal/GenQTest.c **** 
 453:../FreeRTOS/Demo/Common/Minimal/GenQTest.c **** 		/* Now unsuspend the medium priority task.  This should not run as our
 454:../FreeRTOS/Demo/Common/Minimal/GenQTest.c **** 		inherited priority is above that of the medium priority task. */
 455:../FreeRTOS/Demo/Common/Minimal/GenQTest.c **** 		vTaskResume( xMediumPriorityMutexTask );
 456:../FreeRTOS/Demo/Common/Minimal/GenQTest.c **** 
 457:../FreeRTOS/Demo/Common/Minimal/GenQTest.c **** 		/* If the did run then it will have incremented our guarded variable. */
 458:../FreeRTOS/Demo/Common/Minimal/GenQTest.c **** 		if( ulGuardedVariable != 0 )
 459:../FreeRTOS/Demo/Common/Minimal/GenQTest.c **** 		{
 460:../FreeRTOS/Demo/Common/Minimal/GenQTest.c **** 			xErrorDetected = pdTRUE;
 461:../FreeRTOS/Demo/Common/Minimal/GenQTest.c **** 		}
 462:../FreeRTOS/Demo/Common/Minimal/GenQTest.c **** 
 463:../FreeRTOS/Demo/Common/Minimal/GenQTest.c **** 		/* When we give back the semaphore our priority should be disinherited
 464:../FreeRTOS/Demo/Common/Minimal/GenQTest.c **** 		back to the priority to which we attempted to set ourselves.  This means
 465:../FreeRTOS/Demo/Common/Minimal/GenQTest.c **** 		that when the high priority task next blocks, the medium priority task
 466:../FreeRTOS/Demo/Common/Minimal/GenQTest.c **** 		should execute and increment the guarded variable.   When we next run
 467:../FreeRTOS/Demo/Common/Minimal/GenQTest.c **** 		both the high and medium priority tasks will have been suspended again. */
 468:../FreeRTOS/Demo/Common/Minimal/GenQTest.c **** 		if( xSemaphoreGive( xMutex ) != pdPASS )
 469:../FreeRTOS/Demo/Common/Minimal/GenQTest.c **** 		{
 470:../FreeRTOS/Demo/Common/Minimal/GenQTest.c **** 			xErrorDetected = pdTRUE;
 471:../FreeRTOS/Demo/Common/Minimal/GenQTest.c **** 		}
 472:../FreeRTOS/Demo/Common/Minimal/GenQTest.c **** 
 473:../FreeRTOS/Demo/Common/Minimal/GenQTest.c **** 		/* Check that the guarded variable did indeed increment... */
 474:../FreeRTOS/Demo/Common/Minimal/GenQTest.c **** 		if( ulGuardedVariable != 1 )
 475:../FreeRTOS/Demo/Common/Minimal/GenQTest.c **** 		{
 476:../FreeRTOS/Demo/Common/Minimal/GenQTest.c **** 			xErrorDetected = pdTRUE;
 477:../FreeRTOS/Demo/Common/Minimal/GenQTest.c **** 		}
 478:../FreeRTOS/Demo/Common/Minimal/GenQTest.c **** 
 479:../FreeRTOS/Demo/Common/Minimal/GenQTest.c **** 		/* ... and that our priority has been disinherited to
 480:../FreeRTOS/Demo/Common/Minimal/GenQTest.c **** 		genqMUTEX_TEST_PRIORITY. */
 481:../FreeRTOS/Demo/Common/Minimal/GenQTest.c **** 		if( uxTaskPriorityGet( NULL ) != genqMUTEX_TEST_PRIORITY )
 482:../FreeRTOS/Demo/Common/Minimal/GenQTest.c **** 		{
 483:../FreeRTOS/Demo/Common/Minimal/GenQTest.c **** 			xErrorDetected = pdTRUE;
 484:../FreeRTOS/Demo/Common/Minimal/GenQTest.c **** 		}
 485:../FreeRTOS/Demo/Common/Minimal/GenQTest.c **** 
 486:../FreeRTOS/Demo/Common/Minimal/GenQTest.c **** 		/* Set our priority back to our original priority ready for the next
 487:../FreeRTOS/Demo/Common/Minimal/GenQTest.c **** 		loop around this test. */
 488:../FreeRTOS/Demo/Common/Minimal/GenQTest.c **** 		vTaskPrioritySet( NULL, genqMUTEX_LOW_PRIORITY );
 489:../FreeRTOS/Demo/Common/Minimal/GenQTest.c **** 
 490:../FreeRTOS/Demo/Common/Minimal/GenQTest.c **** 		/* Just to show we are still running. */
 491:../FreeRTOS/Demo/Common/Minimal/GenQTest.c **** 		ulLoopCounter2++;
 492:../FreeRTOS/Demo/Common/Minimal/GenQTest.c **** 
 493:../FreeRTOS/Demo/Common/Minimal/GenQTest.c **** 		#if configUSE_PREEMPTION == 0
 494:../FreeRTOS/Demo/Common/Minimal/GenQTest.c **** 			taskYIELD();
 495:../FreeRTOS/Demo/Common/Minimal/GenQTest.c **** 		#endif		
 496:../FreeRTOS/Demo/Common/Minimal/GenQTest.c **** 	}
 497:../FreeRTOS/Demo/Common/Minimal/GenQTest.c **** }
 498:../FreeRTOS/Demo/Common/Minimal/GenQTest.c **** /*-----------------------------------------------------------*/
 499:../FreeRTOS/Demo/Common/Minimal/GenQTest.c **** 
 500:../FreeRTOS/Demo/Common/Minimal/GenQTest.c **** static void prvMediumPriorityMutexTask( void *pvParameters )
 501:../FreeRTOS/Demo/Common/Minimal/GenQTest.c **** {
  26              		.loc 1 501 0
  27              		.cfi_startproc
  28              		@ args = 0, pretend = 0, frame = 0
  29              		@ frame_needed = 0, uses_anonymous_args = 0
  30              	.LVL0:
  31 0000 10B5     		push	{r4, lr}
  32              	.LCFI0:
  33              		.cfi_def_cfa_offset 8
  34              		.cfi_offset 14, -4
  35              		.cfi_offset 4, -8
  36 0002 40F20004 		movw	r4, #:lower16:.LANCHOR0
  37 0006 C0F20004 		movt	r4, #:upper16:.LANCHOR0
  38              	.LVL1:
  39              	.L2:
 502:../FreeRTOS/Demo/Common/Minimal/GenQTest.c **** 	( void ) pvParameters;
 503:../FreeRTOS/Demo/Common/Minimal/GenQTest.c **** 
 504:../FreeRTOS/Demo/Common/Minimal/GenQTest.c **** 	for( ;; )
 505:../FreeRTOS/Demo/Common/Minimal/GenQTest.c **** 	{
 506:../FreeRTOS/Demo/Common/Minimal/GenQTest.c **** 		/* The medium priority task starts by suspending itself.  The low
 507:../FreeRTOS/Demo/Common/Minimal/GenQTest.c **** 		priority task will unsuspend this task when required. */
 508:../FreeRTOS/Demo/Common/Minimal/GenQTest.c **** 		vTaskSuspend( NULL );
  40              		.loc 1 508 0 discriminator 1
  41 000a 0020     		movs	r0, #0
  42 000c FFF7FEFF 		bl	vTaskSuspend
 509:../FreeRTOS/Demo/Common/Minimal/GenQTest.c **** 
 510:../FreeRTOS/Demo/Common/Minimal/GenQTest.c **** 		/* When this task unsuspends all it does is increment the guarded
 511:../FreeRTOS/Demo/Common/Minimal/GenQTest.c **** 		variable, this is so the low priority task knows that it has
 512:../FreeRTOS/Demo/Common/Minimal/GenQTest.c **** 		executed. */
 513:../FreeRTOS/Demo/Common/Minimal/GenQTest.c **** 		ulGuardedVariable++;
  43              		.loc 1 513 0 discriminator 1
  44 0010 2068     		ldr	r0, [r4, #0]
  45 0012 431C     		adds	r3, r0, #1
  46 0014 2360     		str	r3, [r4, #0]
  47 0016 F8E7     		b	.L2
  48              		.cfi_endproc
  49              	.LFE3:
  51              		.section	.text.prvHighPriorityMutexTask,"ax",%progbits
  52              		.align	2
  53              		.thumb
  54              		.thumb_func
  56              	prvHighPriorityMutexTask:
  57              	.LFB4:
 514:../FreeRTOS/Demo/Common/Minimal/GenQTest.c **** 	}
 515:../FreeRTOS/Demo/Common/Minimal/GenQTest.c **** }
 516:../FreeRTOS/Demo/Common/Minimal/GenQTest.c **** /*-----------------------------------------------------------*/
 517:../FreeRTOS/Demo/Common/Minimal/GenQTest.c **** 
 518:../FreeRTOS/Demo/Common/Minimal/GenQTest.c **** static void prvHighPriorityMutexTask( void *pvParameters )
 519:../FreeRTOS/Demo/Common/Minimal/GenQTest.c **** {
  58              		.loc 1 519 0
  59              		.cfi_startproc
  60              		@ args = 0, pretend = 0, frame = 0
  61              		@ frame_needed = 0, uses_anonymous_args = 0
  62              	.LVL2:
  63 0000 70B5     		push	{r4, r5, r6, lr}
  64              	.LCFI1:
  65              		.cfi_def_cfa_offset 16
  66              		.cfi_offset 14, -4
  67              		.cfi_offset 6, -8
  68              		.cfi_offset 5, -12
  69              		.cfi_offset 4, -16
  70 0002 40F20005 		movw	r5, #:lower16:.LANCHOR1
  71              		.loc 1 519 0
  72 0006 0446     		mov	r4, r0
  73              	.LVL3:
  74 0008 C0F20005 		movt	r5, #:upper16:.LANCHOR1
 520:../FreeRTOS/Demo/Common/Minimal/GenQTest.c **** xSemaphoreHandle xMutex = ( xSemaphoreHandle ) pvParameters;
 521:../FreeRTOS/Demo/Common/Minimal/GenQTest.c **** 
 522:../FreeRTOS/Demo/Common/Minimal/GenQTest.c **** 	for( ;; )
 523:../FreeRTOS/Demo/Common/Minimal/GenQTest.c **** 	{
 524:../FreeRTOS/Demo/Common/Minimal/GenQTest.c **** 		/* The high priority task starts by suspending itself.  The low
 525:../FreeRTOS/Demo/Common/Minimal/GenQTest.c **** 		priority task will unsuspend this task when required. */
 526:../FreeRTOS/Demo/Common/Minimal/GenQTest.c **** 		vTaskSuspend( NULL );
 527:../FreeRTOS/Demo/Common/Minimal/GenQTest.c **** 
 528:../FreeRTOS/Demo/Common/Minimal/GenQTest.c **** 		/* When this task unsuspends all it does is attempt to obtain
 529:../FreeRTOS/Demo/Common/Minimal/GenQTest.c **** 		the mutex.  It should find the mutex is not available so a
 530:../FreeRTOS/Demo/Common/Minimal/GenQTest.c **** 		block time is specified. */
 531:../FreeRTOS/Demo/Common/Minimal/GenQTest.c **** 		if( xSemaphoreTake( xMutex, portMAX_DELAY ) != pdPASS )
 532:../FreeRTOS/Demo/Common/Minimal/GenQTest.c **** 		{
 533:../FreeRTOS/Demo/Common/Minimal/GenQTest.c **** 			xErrorDetected = pdTRUE;
  75              		.loc 1 533 0
  76 000c 0126     		movs	r6, #1
  77              	.LVL4:
  78              	.L10:
 526:../FreeRTOS/Demo/Common/Minimal/GenQTest.c **** 		vTaskSuspend( NULL );
  79              		.loc 1 526 0
  80 000e 0020     		movs	r0, #0
  81 0010 FFF7FEFF 		bl	vTaskSuspend
 531:../FreeRTOS/Demo/Common/Minimal/GenQTest.c **** 		if( xSemaphoreTake( xMutex, portMAX_DELAY ) != pdPASS )
  82              		.loc 1 531 0
  83 0014 0021     		movs	r1, #0
  84 0016 0B46     		mov	r3, r1
  85 0018 4FF0FF32 		mov	r2, #-1
  86 001c 2046     		mov	r0, r4
  87 001e FFF7FEFF 		bl	xQueueGenericReceive
 534:../FreeRTOS/Demo/Common/Minimal/GenQTest.c **** 		}
 535:../FreeRTOS/Demo/Common/Minimal/GenQTest.c **** 
 536:../FreeRTOS/Demo/Common/Minimal/GenQTest.c **** 		/* When we eventually obtain the mutex we just give it back then
 537:../FreeRTOS/Demo/Common/Minimal/GenQTest.c **** 		return to suspend ready for the next test. */
 538:../FreeRTOS/Demo/Common/Minimal/GenQTest.c **** 		if( xSemaphoreGive( xMutex ) != pdPASS )
  88              		.loc 1 538 0
  89 0022 0021     		movs	r1, #0
  90 0024 0A46     		mov	r2, r1
 531:../FreeRTOS/Demo/Common/Minimal/GenQTest.c **** 		if( xSemaphoreTake( xMutex, portMAX_DELAY ) != pdPASS )
  91              		.loc 1 531 0
  92 0026 0128     		cmp	r0, #1
  93              		.loc 1 538 0
  94 0028 0B46     		mov	r3, r1
  95 002a 2046     		mov	r0, r4
 533:../FreeRTOS/Demo/Common/Minimal/GenQTest.c **** 			xErrorDetected = pdTRUE;
  96              		.loc 1 533 0
  97 002c 18BF     		it	ne
  98 002e 2E60     		strne	r6, [r5, #0]
  99              		.loc 1 538 0
 100 0030 FFF7FEFF 		bl	xQueueGenericSend
 101 0034 0128     		cmp	r0, #1
 539:../FreeRTOS/Demo/Common/Minimal/GenQTest.c **** 		{
 540:../FreeRTOS/Demo/Common/Minimal/GenQTest.c **** 			xErrorDetected = pdTRUE;
 102              		.loc 1 540 0
 103 0036 18BF     		it	ne
 104 0038 2E60     		strne	r6, [r5, #0]
 105 003a E8E7     		b	.L10
 106              		.cfi_endproc
 107              	.LFE4:
 109              		.section	.text.prvLowPriorityMutexTask,"ax",%progbits
 110              		.align	2
 111              		.thumb
 112              		.thumb_func
 114              	prvLowPriorityMutexTask:
 115              	.LFB2:
 403:../FreeRTOS/Demo/Common/Minimal/GenQTest.c **** {
 116              		.loc 1 403 0
 117              		.cfi_startproc
 118              		@ args = 0, pretend = 0, frame = 0
 119              		@ frame_needed = 0, uses_anonymous_args = 0
 120              	.LVL5:
 121 0000 2DE9F84F 		push	{r3, r4, r5, r6, r7, r8, r9, sl, fp, lr}
 122              	.LCFI2:
 123              		.cfi_def_cfa_offset 40
 124              		.cfi_offset 14, -4
 125              		.cfi_offset 11, -8
 126              		.cfi_offset 10, -12
 127              		.cfi_offset 9, -16
 128              		.cfi_offset 8, -20
 129              		.cfi_offset 7, -24
 130              		.cfi_offset 6, -28
 131              		.cfi_offset 5, -32
 132              		.cfi_offset 4, -36
 133              		.cfi_offset 3, -40
 134 0004 40F20004 		movw	r4, #:lower16:.LANCHOR1
 135 0008 40F20006 		movw	r6, #:lower16:.LANCHOR0
 136 000c 40F20009 		movw	r9, #:lower16:.LANCHOR2
 137 0010 40F2000A 		movw	sl, #:lower16:.LANCHOR3
 138 0014 40F20007 		movw	r7, #:lower16:.LANCHOR4
 403:../FreeRTOS/Demo/Common/Minimal/GenQTest.c **** {
 139              		.loc 1 403 0
 140 0018 8046     		mov	r8, r0
 141              	.LVL6:
 142 001a C0F20004 		movt	r4, #:upper16:.LANCHOR1
 143 001e C0F20006 		movt	r6, #:upper16:.LANCHOR0
 144 0022 C0F20009 		movt	r9, #:upper16:.LANCHOR2
 145 0026 C0F2000A 		movt	sl, #:upper16:.LANCHOR3
 146 002a C0F20007 		movt	r7, #:upper16:.LANCHOR4
 418:../FreeRTOS/Demo/Common/Minimal/GenQTest.c **** 		if( xSemaphoreTake( xMutex, genqNO_BLOCK ) != pdPASS )
 147              		.loc 1 418 0
 148 002e 4FF0000B 		mov	fp, #0
 420:../FreeRTOS/Demo/Common/Minimal/GenQTest.c **** 			xErrorDetected = pdTRUE;
 149              		.loc 1 420 0
 150 0032 0125     		movs	r5, #1
 151              	.LVL7:
 152              	.L20:
 418:../FreeRTOS/Demo/Common/Minimal/GenQTest.c **** 		if( xSemaphoreTake( xMutex, genqNO_BLOCK ) != pdPASS )
 153              		.loc 1 418 0
 154 0034 0021     		movs	r1, #0
 155 0036 4046     		mov	r0, r8
 156 0038 0A46     		mov	r2, r1
 157 003a 0B46     		mov	r3, r1
 158 003c FFF7FEFF 		bl	xQueueGenericReceive
 159 0040 0128     		cmp	r0, #1
 420:../FreeRTOS/Demo/Common/Minimal/GenQTest.c **** 			xErrorDetected = pdTRUE;
 160              		.loc 1 420 0
 161 0042 18BF     		it	ne
 162 0044 2560     		strne	r5, [r4, #0]
 428:../FreeRTOS/Demo/Common/Minimal/GenQTest.c **** 		if( uxTaskPriorityGet( NULL ) != genqMUTEX_LOW_PRIORITY )
 163              		.loc 1 428 0
 164 0046 0020     		movs	r0, #0
 424:../FreeRTOS/Demo/Common/Minimal/GenQTest.c **** 		ulGuardedVariable = 0;
 165              		.loc 1 424 0
 166 0048 C6F800B0 		str	fp, [r6, #0]
 428:../FreeRTOS/Demo/Common/Minimal/GenQTest.c **** 		if( uxTaskPriorityGet( NULL ) != genqMUTEX_LOW_PRIORITY )
 167              		.loc 1 428 0
 168 004c FFF7FEFF 		bl	uxTaskPriorityGet
 169 0050 00B1     		cbz	r0, .L13
 430:../FreeRTOS/Demo/Common/Minimal/GenQTest.c **** 			xErrorDetected = pdTRUE;
 170              		.loc 1 430 0
 171 0052 2560     		str	r5, [r4, #0]
 172              	.L13:
 435:../FreeRTOS/Demo/Common/Minimal/GenQTest.c **** 		vTaskResume( xHighPriorityMutexTask );
 173              		.loc 1 435 0
 174 0054 D9F80000 		ldr	r0, [r9, #0]
 175 0058 FFF7FEFF 		bl	vTaskResume
 439:../FreeRTOS/Demo/Common/Minimal/GenQTest.c **** 		if( uxTaskPriorityGet( NULL ) != genqMUTEX_HIGH_PRIORITY )
 176              		.loc 1 439 0
 177 005c 0020     		movs	r0, #0
 178 005e FFF7FEFF 		bl	uxTaskPriorityGet
 179 0062 0328     		cmp	r0, #3
 441:../FreeRTOS/Demo/Common/Minimal/GenQTest.c **** 			xErrorDetected = pdTRUE;
 180              		.loc 1 441 0
 181 0064 18BF     		it	ne
 182 0066 2560     		strne	r5, [r4, #0]
 447:../FreeRTOS/Demo/Common/Minimal/GenQTest.c **** 		vTaskPrioritySet( NULL, genqMUTEX_TEST_PRIORITY );
 183              		.loc 1 447 0
 184 0068 0121     		movs	r1, #1
 185 006a 0020     		movs	r0, #0
 186 006c FFF7FEFF 		bl	vTaskPrioritySet
 448:../FreeRTOS/Demo/Common/Minimal/GenQTest.c **** 		if( uxTaskPriorityGet( NULL ) != genqMUTEX_HIGH_PRIORITY )
 187              		.loc 1 448 0
 188 0070 0020     		movs	r0, #0
 189 0072 FFF7FEFF 		bl	uxTaskPriorityGet
 190 0076 0328     		cmp	r0, #3
 455:../FreeRTOS/Demo/Common/Minimal/GenQTest.c **** 		vTaskResume( xMediumPriorityMutexTask );
 191              		.loc 1 455 0
 192 0078 DAF80000 		ldr	r0, [sl, #0]
 450:../FreeRTOS/Demo/Common/Minimal/GenQTest.c **** 			xErrorDetected = pdTRUE;
 193              		.loc 1 450 0
 194 007c 18BF     		it	ne
 195 007e 2560     		strne	r5, [r4, #0]
 455:../FreeRTOS/Demo/Common/Minimal/GenQTest.c **** 		vTaskResume( xMediumPriorityMutexTask );
 196              		.loc 1 455 0
 197 0080 FFF7FEFF 		bl	vTaskResume
 458:../FreeRTOS/Demo/Common/Minimal/GenQTest.c **** 		if( ulGuardedVariable != 0 )
 198              		.loc 1 458 0
 199 0084 3368     		ldr	r3, [r6, #0]
 200 0086 03B1     		cbz	r3, .L16
 460:../FreeRTOS/Demo/Common/Minimal/GenQTest.c **** 			xErrorDetected = pdTRUE;
 201              		.loc 1 460 0
 202 0088 2560     		str	r5, [r4, #0]
 203              	.L16:
 468:../FreeRTOS/Demo/Common/Minimal/GenQTest.c **** 		if( xSemaphoreGive( xMutex ) != pdPASS )
 204              		.loc 1 468 0
 205 008a 0021     		movs	r1, #0
 206 008c 0A46     		mov	r2, r1
 207 008e 0B46     		mov	r3, r1
 208 0090 4046     		mov	r0, r8
 209 0092 FFF7FEFF 		bl	xQueueGenericSend
 474:../FreeRTOS/Demo/Common/Minimal/GenQTest.c **** 		if( ulGuardedVariable != 1 )
 210              		.loc 1 474 0
 211 0096 3268     		ldr	r2, [r6, #0]
 468:../FreeRTOS/Demo/Common/Minimal/GenQTest.c **** 		if( xSemaphoreGive( xMutex ) != pdPASS )
 212              		.loc 1 468 0
 213 0098 0128     		cmp	r0, #1
 470:../FreeRTOS/Demo/Common/Minimal/GenQTest.c **** 			xErrorDetected = pdTRUE;
 214              		.loc 1 470 0
 215 009a 18BF     		it	ne
 216 009c 2560     		strne	r5, [r4, #0]
 474:../FreeRTOS/Demo/Common/Minimal/GenQTest.c **** 		if( ulGuardedVariable != 1 )
 217              		.loc 1 474 0
 218 009e 012A     		cmp	r2, #1
 476:../FreeRTOS/Demo/Common/Minimal/GenQTest.c **** 			xErrorDetected = pdTRUE;
 219              		.loc 1 476 0
 220 00a0 18BF     		it	ne
 221 00a2 2560     		strne	r5, [r4, #0]
 481:../FreeRTOS/Demo/Common/Minimal/GenQTest.c **** 		if( uxTaskPriorityGet( NULL ) != genqMUTEX_TEST_PRIORITY )
 222              		.loc 1 481 0
 223 00a4 0020     		movs	r0, #0
 224 00a6 FFF7FEFF 		bl	uxTaskPriorityGet
 225 00aa 0128     		cmp	r0, #1
 483:../FreeRTOS/Demo/Common/Minimal/GenQTest.c **** 			xErrorDetected = pdTRUE;
 226              		.loc 1 483 0
 227 00ac 18BF     		it	ne
 228 00ae 2560     		strne	r5, [r4, #0]
 488:../FreeRTOS/Demo/Common/Minimal/GenQTest.c **** 		vTaskPrioritySet( NULL, genqMUTEX_LOW_PRIORITY );
 229              		.loc 1 488 0
 230 00b0 0020     		movs	r0, #0
 231 00b2 0146     		mov	r1, r0
 232 00b4 FFF7FEFF 		bl	vTaskPrioritySet
 491:../FreeRTOS/Demo/Common/Minimal/GenQTest.c **** 		ulLoopCounter2++;
 233              		.loc 1 491 0
 234 00b8 3968     		ldr	r1, [r7, #0]
 235 00ba 481C     		adds	r0, r1, #1
 236 00bc 3860     		str	r0, [r7, #0]
 496:../FreeRTOS/Demo/Common/Minimal/GenQTest.c **** 	}
 237              		.loc 1 496 0
 238 00be B9E7     		b	.L20
 239              		.cfi_endproc
 240              	.LFE2:
 242              		.section	.text.prvSendFrontAndBackTest,"ax",%progbits
 243              		.align	2
 244              		.thumb
 245              		.thumb_func
 247              	prvSendFrontAndBackTest:
 248              	.LFB1:
 175:../FreeRTOS/Demo/Common/Minimal/GenQTest.c **** {
 249              		.loc 1 175 0
 250              		.cfi_startproc
 251              		@ args = 0, pretend = 0, frame = 8
 252              		@ frame_needed = 0, uses_anonymous_args = 0
 253              	.LVL8:
 254 0000 2DE9F04F 		push	{r4, r5, r6, r7, r8, r9, sl, fp, lr}
 255              	.LCFI3:
 256              		.cfi_def_cfa_offset 36
 257              		.cfi_offset 14, -4
 258              		.cfi_offset 11, -8
 259              		.cfi_offset 10, -12
 260              		.cfi_offset 9, -16
 261              		.cfi_offset 8, -20
 262              		.cfi_offset 7, -24
 263              		.cfi_offset 6, -28
 264              		.cfi_offset 5, -32
 265              		.cfi_offset 4, -36
 266 0004 40F20005 		movw	r5, #:lower16:.LANCHOR1
 267 0008 40F20008 		movw	r8, #:lower16:.LANCHOR5
 268 000c 83B0     		sub	sp, sp, #12
 269              	.LCFI4:
 270              		.cfi_def_cfa_offset 48
 175:../FreeRTOS/Demo/Common/Minimal/GenQTest.c **** {
 271              		.loc 1 175 0
 272 000e 0446     		mov	r4, r0
 273              	.LVL9:
 274 0010 C0F20005 		movt	r5, #:upper16:.LANCHOR1
 275 0014 C0F20008 		movt	r8, #:upper16:.LANCHOR5
 253:../FreeRTOS/Demo/Common/Minimal/GenQTest.c **** 		for( ulData = 2; ulData < 5; ulData++ )
 276              		.loc 1 253 0
 277 0018 4FF0020B 		mov	fp, #2
 331:../FreeRTOS/Demo/Common/Minimal/GenQTest.c **** 		ulData = 10;
 278              		.loc 1 331 0
 279 001c 4FF00A09 		mov	r9, #10
 336:../FreeRTOS/Demo/Common/Minimal/GenQTest.c **** 		ulData = 11;
 280              		.loc 1 336 0
 281 0020 4FF00B0A 		mov	sl, #11
 282              	.LVL10:
 283              	.L57:
 196:../FreeRTOS/Demo/Common/Minimal/GenQTest.c **** 		xQueueSendToFront( xQueue, ( void * ) &ulLoopCounter, genqNO_BLOCK );
 284              		.loc 1 196 0
 285 0024 40F20001 		movw	r1, #:lower16:.LANCHOR5
 286 0028 0022     		movs	r2, #0
 287 002a 0123     		movs	r3, #1
 288 002c C0F20001 		movt	r1, #:upper16:.LANCHOR5
 289 0030 2046     		mov	r0, r4
 290 0032 FFF7FEFF 		bl	xQueueGenericSend
 198:../FreeRTOS/Demo/Common/Minimal/GenQTest.c **** 		if( uxQueueMessagesWaiting( xQueue ) != 1 )
 291              		.loc 1 198 0
 292 0036 2046     		mov	r0, r4
 293 0038 FFF7FEFF 		bl	uxQueueMessagesWaiting
 294 003c 0128     		cmp	r0, #1
 295 003e 01D0     		beq	.L22
 200:../FreeRTOS/Demo/Common/Minimal/GenQTest.c **** 			xErrorDetected = pdTRUE;
 296              		.loc 1 200 0
 297 0040 0123     		movs	r3, #1
 298 0042 2B60     		str	r3, [r5, #0]
 299              	.L22:
 203:../FreeRTOS/Demo/Common/Minimal/GenQTest.c **** 		if( xQueueReceive( xQueue, ( void * ) &ulData, genqNO_BLOCK ) != pdPASS )
 300              		.loc 1 203 0
 301 0044 0022     		movs	r2, #0
 302 0046 2046     		mov	r0, r4
 303 0048 6946     		mov	r1, sp
 304 004a 1346     		mov	r3, r2
 305 004c FFF7FEFF 		bl	xQueueGenericReceive
 306 0050 0128     		cmp	r0, #1
 307 0052 01D0     		beq	.L23
 205:../FreeRTOS/Demo/Common/Minimal/GenQTest.c **** 			xErrorDetected = pdTRUE;
 308              		.loc 1 205 0
 309 0054 0120     		movs	r0, #1
 310 0056 2860     		str	r0, [r5, #0]
 311              	.L23:
 210:../FreeRTOS/Demo/Common/Minimal/GenQTest.c **** 		if( ulLoopCounter != ulData )
 312              		.loc 1 210 0
 313 0058 D8F80020 		ldr	r2, [r8, #0]
 314 005c 0099     		ldr	r1, [sp, #0]
 315 005e 8A42     		cmp	r2, r1
 316 0060 01D0     		beq	.L24
 212:../FreeRTOS/Demo/Common/Minimal/GenQTest.c **** 			xErrorDetected = pdTRUE;
 317              		.loc 1 212 0
 318 0062 0126     		movs	r6, #1
 319 0064 2E60     		str	r6, [r5, #0]
 320              	.L24:
 217:../FreeRTOS/Demo/Common/Minimal/GenQTest.c **** 		if( uxQueueMessagesWaiting( xQueue ) != 0 )
 321              		.loc 1 217 0
 322 0066 2046     		mov	r0, r4
 323 0068 FFF7FEFF 		bl	uxQueueMessagesWaiting
 324 006c 08B1     		cbz	r0, .L25
 219:../FreeRTOS/Demo/Common/Minimal/GenQTest.c **** 			xErrorDetected = pdTRUE;
 325              		.loc 1 219 0
 326 006e 0127     		movs	r7, #1
 327 0070 2F60     		str	r7, [r5, #0]
 328              	.L25:
 222:../FreeRTOS/Demo/Common/Minimal/GenQTest.c **** 		xQueueSendToBack( xQueue, ( void * ) &ulLoopCounter, genqNO_BLOCK );
 329              		.loc 1 222 0
 330 0072 0022     		movs	r2, #0
 331 0074 40F20001 		movw	r1, #:lower16:.LANCHOR5
 332 0078 C0F20001 		movt	r1, #:upper16:.LANCHOR5
 333 007c 1346     		mov	r3, r2
 334 007e 2046     		mov	r0, r4
 335 0080 FFF7FEFF 		bl	xQueueGenericSend
 224:../FreeRTOS/Demo/Common/Minimal/GenQTest.c **** 		if( uxQueueMessagesWaiting( xQueue ) != 1 )
 336              		.loc 1 224 0
 337 0084 2046     		mov	r0, r4
 338 0086 FFF7FEFF 		bl	uxQueueMessagesWaiting
 339 008a 0128     		cmp	r0, #1
 340 008c 01D0     		beq	.L26
 226:../FreeRTOS/Demo/Common/Minimal/GenQTest.c **** 			xErrorDetected = pdTRUE;
 341              		.loc 1 226 0
 342 008e 0123     		movs	r3, #1
 343 0090 2B60     		str	r3, [r5, #0]
 344              	.L26:
 229:../FreeRTOS/Demo/Common/Minimal/GenQTest.c **** 		if( xQueueReceive( xQueue, ( void * ) &ulData, genqNO_BLOCK ) != pdPASS )
 345              		.loc 1 229 0
 346 0092 0022     		movs	r2, #0
 347 0094 2046     		mov	r0, r4
 348 0096 6946     		mov	r1, sp
 349 0098 1346     		mov	r3, r2
 350 009a FFF7FEFF 		bl	xQueueGenericReceive
 351 009e 0128     		cmp	r0, #1
 352 00a0 01D0     		beq	.L27
 231:../FreeRTOS/Demo/Common/Minimal/GenQTest.c **** 			xErrorDetected = pdTRUE;
 353              		.loc 1 231 0
 354 00a2 0120     		movs	r0, #1
 355 00a4 2860     		str	r0, [r5, #0]
 356              	.L27:
 234:../FreeRTOS/Demo/Common/Minimal/GenQTest.c **** 		if( uxQueueMessagesWaiting( xQueue ) != 0 )
 357              		.loc 1 234 0
 358 00a6 2046     		mov	r0, r4
 359 00a8 FFF7FEFF 		bl	uxQueueMessagesWaiting
 360 00ac 08B1     		cbz	r0, .L28
 236:../FreeRTOS/Demo/Common/Minimal/GenQTest.c **** 			xErrorDetected = pdTRUE;
 361              		.loc 1 236 0
 362 00ae 0122     		movs	r2, #1
 363 00b0 2A60     		str	r2, [r5, #0]
 364              	.L28:
 241:../FreeRTOS/Demo/Common/Minimal/GenQTest.c **** 		if( ulLoopCounter != ulData )
 365              		.loc 1 241 0
 366 00b2 D8F80010 		ldr	r1, [r8, #0]
 367 00b6 009E     		ldr	r6, [sp, #0]
 368 00b8 B142     		cmp	r1, r6
 369 00ba 01D0     		beq	.L66
 243:../FreeRTOS/Demo/Common/Minimal/GenQTest.c **** 			xErrorDetected = pdTRUE;
 370              		.loc 1 243 0
 371 00bc 0127     		movs	r7, #1
 372 00be 2F60     		str	r7, [r5, #0]
 373              	.L66:
 253:../FreeRTOS/Demo/Common/Minimal/GenQTest.c **** 		for( ulData = 2; ulData < 5; ulData++ )
 374              		.loc 1 253 0
 375 00c0 CDF800B0 		str	fp, [sp, #0]
 376              	.L61:
 255:../FreeRTOS/Demo/Common/Minimal/GenQTest.c **** 			xQueueSendToBack( xQueue, ( void * ) &ulData, genqNO_BLOCK );
 377              		.loc 1 255 0 discriminator 2
 378 00c4 0022     		movs	r2, #0
 379 00c6 1346     		mov	r3, r2
 380 00c8 2046     		mov	r0, r4
 381 00ca 6946     		mov	r1, sp
 382 00cc FFF7FEFF 		bl	xQueueGenericSend
 253:../FreeRTOS/Demo/Common/Minimal/GenQTest.c **** 		for( ulData = 2; ulData < 5; ulData++ )
 383              		.loc 1 253 0 discriminator 2
 384 00d0 0098     		ldr	r0, [sp, #0]
 385 00d2 431C     		adds	r3, r0, #1
 386 00d4 042B     		cmp	r3, #4
 387 00d6 0093     		str	r3, [sp, #0]
 388 00d8 F4D9     		bls	.L61
 260:../FreeRTOS/Demo/Common/Minimal/GenQTest.c **** 		if( uxQueueMessagesWaiting( xQueue ) != 3 )
 389              		.loc 1 260 0
 390 00da 2046     		mov	r0, r4
 391 00dc FFF7FEFF 		bl	uxQueueMessagesWaiting
 392 00e0 0328     		cmp	r0, #3
 393 00e2 01D0     		beq	.L32
 262:../FreeRTOS/Demo/Common/Minimal/GenQTest.c **** 			xErrorDetected = pdTRUE;
 394              		.loc 1 262 0
 395 00e4 0122     		movs	r2, #1
 396 00e6 2A60     		str	r2, [r5, #0]
 397              	.L32:
 264:../FreeRTOS/Demo/Common/Minimal/GenQTest.c **** 		ulData = 1;
 398              		.loc 1 264 0
 399 00e8 0126     		movs	r6, #1
 265:../FreeRTOS/Demo/Common/Minimal/GenQTest.c **** 		xQueueSendToFront( xQueue, ( void * ) &ulData, genqNO_BLOCK );
 400              		.loc 1 265 0
 401 00ea 0022     		movs	r2, #0
 266:../FreeRTOS/Demo/Common/Minimal/GenQTest.c **** 		ulData = 0;
 402              		.loc 1 266 0
 403 00ec 0027     		movs	r7, #0
 265:../FreeRTOS/Demo/Common/Minimal/GenQTest.c **** 		xQueueSendToFront( xQueue, ( void * ) &ulData, genqNO_BLOCK );
 404              		.loc 1 265 0
 405 00ee 6946     		mov	r1, sp
 406 00f0 3346     		mov	r3, r6
 407 00f2 2046     		mov	r0, r4
 264:../FreeRTOS/Demo/Common/Minimal/GenQTest.c **** 		ulData = 1;
 408              		.loc 1 264 0
 409 00f4 0096     		str	r6, [sp, #0]
 265:../FreeRTOS/Demo/Common/Minimal/GenQTest.c **** 		xQueueSendToFront( xQueue, ( void * ) &ulData, genqNO_BLOCK );
 410              		.loc 1 265 0
 411 00f6 FFF7FEFF 		bl	xQueueGenericSend
 267:../FreeRTOS/Demo/Common/Minimal/GenQTest.c **** 		xQueueSendToFront( xQueue, ( void * ) &ulData, genqNO_BLOCK );
 412              		.loc 1 267 0
 413 00fa 6946     		mov	r1, sp
 414 00fc 3A46     		mov	r2, r7
 415 00fe 3346     		mov	r3, r6
 416 0100 2046     		mov	r0, r4
 266:../FreeRTOS/Demo/Common/Minimal/GenQTest.c **** 		ulData = 0;
 417              		.loc 1 266 0
 418 0102 0097     		str	r7, [sp, #0]
 267:../FreeRTOS/Demo/Common/Minimal/GenQTest.c **** 		xQueueSendToFront( xQueue, ( void * ) &ulData, genqNO_BLOCK );
 419              		.loc 1 267 0
 420 0104 FFF7FEFF 		bl	xQueueGenericSend
 271:../FreeRTOS/Demo/Common/Minimal/GenQTest.c **** 		if( uxQueueMessagesWaiting( xQueue ) != 5 )
 421              		.loc 1 271 0
 422 0108 2046     		mov	r0, r4
 423 010a FFF7FEFF 		bl	uxQueueMessagesWaiting
 424 010e 0528     		cmp	r0, #5
 273:../FreeRTOS/Demo/Common/Minimal/GenQTest.c **** 			xErrorDetected = pdTRUE;
 425              		.loc 1 273 0
 426 0110 18BF     		it	ne
 427 0112 2E60     		strne	r6, [r5, #0]
 276:../FreeRTOS/Demo/Common/Minimal/GenQTest.c **** 		if( xQueueSendToFront( xQueue, ( void * ) &ulData, genqNO_BLOCK ) != errQUEUE_FULL )
 428              		.loc 1 276 0
 429 0114 2046     		mov	r0, r4
 430 0116 6946     		mov	r1, sp
 431 0118 0022     		movs	r2, #0
 432 011a 0123     		movs	r3, #1
 433 011c FFF7FEFF 		bl	xQueueGenericSend
 434 0120 08B1     		cbz	r0, .L34
 278:../FreeRTOS/Demo/Common/Minimal/GenQTest.c **** 			xErrorDetected = pdTRUE;
 435              		.loc 1 278 0
 436 0122 0121     		movs	r1, #1
 437 0124 2960     		str	r1, [r5, #0]
 438              	.L34:
 281:../FreeRTOS/Demo/Common/Minimal/GenQTest.c **** 		if( xQueueSendToBack( xQueue, ( void * ) &ulData, genqNO_BLOCK ) != errQUEUE_FULL )
 439              		.loc 1 281 0
 440 0126 0022     		movs	r2, #0
 441 0128 2046     		mov	r0, r4
 442 012a 6946     		mov	r1, sp
 443 012c 1346     		mov	r3, r2
 444 012e FFF7FEFF 		bl	xQueueGenericSend
 445 0132 0028     		cmp	r0, #0
 446 0134 00F09B80 		beq	.L35
 283:../FreeRTOS/Demo/Common/Minimal/GenQTest.c **** 			xErrorDetected = pdTRUE;
 447              		.loc 1 283 0
 448 0138 0120     		movs	r0, #1
 291:../FreeRTOS/Demo/Common/Minimal/GenQTest.c **** 		for( ulData = 0; ulData < genqQUEUE_LENGTH; ulData++ )
 449              		.loc 1 291 0
 450 013a 0023     		movs	r3, #0
 283:../FreeRTOS/Demo/Common/Minimal/GenQTest.c **** 			xErrorDetected = pdTRUE;
 451              		.loc 1 283 0
 452 013c 2860     		str	r0, [r5, #0]
 291:../FreeRTOS/Demo/Common/Minimal/GenQTest.c **** 		for( ulData = 0; ulData < genqQUEUE_LENGTH; ulData++ )
 453              		.loc 1 291 0
 454 013e 0093     		str	r3, [sp, #0]
 455              	.L41:
 294:../FreeRTOS/Demo/Common/Minimal/GenQTest.c **** 			if( xQueuePeek( xQueue, &ulData2, genqNO_BLOCK ) != pdPASS )
 456              		.loc 1 294 0
 457 0140 0126     		movs	r6, #1
 458              	.L60:
 459 0142 0022     		movs	r2, #0
 460 0144 0123     		movs	r3, #1
 461 0146 01A9     		add	r1, sp, #4
 462 0148 2046     		mov	r0, r4
 463 014a FFF7FEFF 		bl	xQueueGenericReceive
 299:../FreeRTOS/Demo/Common/Minimal/GenQTest.c **** 			if( ulData != ulData2 )
 464              		.loc 1 299 0
 465 014e 019F     		ldr	r7, [sp, #4]
 466 0150 DDF800C0 		ldr	ip, [sp, #0]
 308:../FreeRTOS/Demo/Common/Minimal/GenQTest.c **** 			if( xQueueReceive( xQueue, &ulData2, genqNO_BLOCK ) != pdPASS )
 467              		.loc 1 308 0
 468 0154 0022     		movs	r2, #0
 294:../FreeRTOS/Demo/Common/Minimal/GenQTest.c **** 			if( xQueuePeek( xQueue, &ulData2, genqNO_BLOCK ) != pdPASS )
 469              		.loc 1 294 0
 470 0156 0128     		cmp	r0, #1
 307:../FreeRTOS/Demo/Common/Minimal/GenQTest.c **** 			ulData2 = ~ulData2;
 471              		.loc 1 307 0
 472 0158 6FEA070E 		mvn	lr, r7
 296:../FreeRTOS/Demo/Common/Minimal/GenQTest.c **** 				xErrorDetected = pdTRUE;
 473              		.loc 1 296 0
 474 015c 18BF     		it	ne
 475 015e 2E60     		strne	r6, [r5, #0]
 308:../FreeRTOS/Demo/Common/Minimal/GenQTest.c **** 			if( xQueueReceive( xQueue, &ulData2, genqNO_BLOCK ) != pdPASS )
 476              		.loc 1 308 0
 477 0160 01A9     		add	r1, sp, #4
 299:../FreeRTOS/Demo/Common/Minimal/GenQTest.c **** 			if( ulData != ulData2 )
 478              		.loc 1 299 0
 479 0162 BC45     		cmp	ip, r7
 308:../FreeRTOS/Demo/Common/Minimal/GenQTest.c **** 			if( xQueueReceive( xQueue, &ulData2, genqNO_BLOCK ) != pdPASS )
 480              		.loc 1 308 0
 481 0164 1346     		mov	r3, r2
 482 0166 2046     		mov	r0, r4
 301:../FreeRTOS/Demo/Common/Minimal/GenQTest.c **** 				xErrorDetected = pdTRUE;
 483              		.loc 1 301 0
 484 0168 18BF     		it	ne
 485 016a 2E60     		strne	r6, [r5, #0]
 307:../FreeRTOS/Demo/Common/Minimal/GenQTest.c **** 			ulData2 = ~ulData2;
 486              		.loc 1 307 0
 487 016c CDF804E0 		str	lr, [sp, #4]
 308:../FreeRTOS/Demo/Common/Minimal/GenQTest.c **** 			if( xQueueReceive( xQueue, &ulData2, genqNO_BLOCK ) != pdPASS )
 488              		.loc 1 308 0
 489 0170 FFF7FEFF 		bl	xQueueGenericReceive
 313:../FreeRTOS/Demo/Common/Minimal/GenQTest.c **** 			if( ulData != ulData2 )
 490              		.loc 1 313 0
 491 0174 009A     		ldr	r2, [sp, #0]
 492 0176 0199     		ldr	r1, [sp, #4]
 291:../FreeRTOS/Demo/Common/Minimal/GenQTest.c **** 		for( ulData = 0; ulData < genqQUEUE_LENGTH; ulData++ )
 493              		.loc 1 291 0
 494 0178 571C     		adds	r7, r2, #1
 308:../FreeRTOS/Demo/Common/Minimal/GenQTest.c **** 			if( xQueueReceive( xQueue, &ulData2, genqNO_BLOCK ) != pdPASS )
 495              		.loc 1 308 0
 496 017a 0128     		cmp	r0, #1
 310:../FreeRTOS/Demo/Common/Minimal/GenQTest.c **** 				xErrorDetected = pdTRUE;
 497              		.loc 1 310 0
 498 017c 18BF     		it	ne
 499 017e 2E60     		strne	r6, [r5, #0]
 313:../FreeRTOS/Demo/Common/Minimal/GenQTest.c **** 			if( ulData != ulData2 )
 500              		.loc 1 313 0
 501 0180 8A42     		cmp	r2, r1
 315:../FreeRTOS/Demo/Common/Minimal/GenQTest.c **** 				xErrorDetected = pdTRUE;
 502              		.loc 1 315 0
 503 0182 18BF     		it	ne
 504 0184 2E60     		strne	r6, [r5, #0]
 291:../FreeRTOS/Demo/Common/Minimal/GenQTest.c **** 		for( ulData = 0; ulData < genqQUEUE_LENGTH; ulData++ )
 505              		.loc 1 291 0
 506 0186 042F     		cmp	r7, #4
 507 0188 0097     		str	r7, [sp, #0]
 508 018a DAD9     		bls	.L60
 320:../FreeRTOS/Demo/Common/Minimal/GenQTest.c **** 		if( uxQueueMessagesWaiting( xQueue ) != 0 )
 509              		.loc 1 320 0
 510 018c 2046     		mov	r0, r4
 511 018e FFF7FEFF 		bl	uxQueueMessagesWaiting
 512 0192 08B1     		cbz	r0, .L42
 322:../FreeRTOS/Demo/Common/Minimal/GenQTest.c **** 			xErrorDetected = pdTRUE;
 513              		.loc 1 322 0
 514 0194 0126     		movs	r6, #1
 515 0196 2E60     		str	r6, [r5, #0]
 516              	.L42:
 332:../FreeRTOS/Demo/Common/Minimal/GenQTest.c **** 		if( xQueueSend( xQueue, &ulData, genqNO_BLOCK ) != pdPASS )
 517              		.loc 1 332 0
 518 0198 0022     		movs	r2, #0
 519 019a 2046     		mov	r0, r4
 520 019c 6946     		mov	r1, sp
 521 019e 1346     		mov	r3, r2
 331:../FreeRTOS/Demo/Common/Minimal/GenQTest.c **** 		ulData = 10;
 522              		.loc 1 331 0
 523 01a0 CDF80090 		str	r9, [sp, #0]
 332:../FreeRTOS/Demo/Common/Minimal/GenQTest.c **** 		if( xQueueSend( xQueue, &ulData, genqNO_BLOCK ) != pdPASS )
 524              		.loc 1 332 0
 525 01a4 FFF7FEFF 		bl	xQueueGenericSend
 526 01a8 0128     		cmp	r0, #1
 527 01aa 01D0     		beq	.L43
 334:../FreeRTOS/Demo/Common/Minimal/GenQTest.c **** 			xErrorDetected = pdTRUE;
 528              		.loc 1 334 0
 529 01ac 0123     		movs	r3, #1
 530 01ae 2B60     		str	r3, [r5, #0]
 531              	.L43:
 337:../FreeRTOS/Demo/Common/Minimal/GenQTest.c **** 		if( xQueueSend( xQueue, &ulData, genqNO_BLOCK ) != pdPASS )
 532              		.loc 1 337 0
 533 01b0 0022     		movs	r2, #0
 534 01b2 2046     		mov	r0, r4
 535 01b4 6946     		mov	r1, sp
 536 01b6 1346     		mov	r3, r2
 336:../FreeRTOS/Demo/Common/Minimal/GenQTest.c **** 		ulData = 11;
 537              		.loc 1 336 0
 538 01b8 CDF800A0 		str	sl, [sp, #0]
 337:../FreeRTOS/Demo/Common/Minimal/GenQTest.c **** 		if( xQueueSend( xQueue, &ulData, genqNO_BLOCK ) != pdPASS )
 539              		.loc 1 337 0
 540 01bc FFF7FEFF 		bl	xQueueGenericSend
 541 01c0 0128     		cmp	r0, #1
 542 01c2 01D0     		beq	.L44
 339:../FreeRTOS/Demo/Common/Minimal/GenQTest.c **** 			xErrorDetected = pdTRUE;
 543              		.loc 1 339 0
 544 01c4 0120     		movs	r0, #1
 545 01c6 2860     		str	r0, [r5, #0]
 546              	.L44:
 342:../FreeRTOS/Demo/Common/Minimal/GenQTest.c **** 		if( uxQueueMessagesWaiting( xQueue ) != 2 )
 547              		.loc 1 342 0
 548 01c8 2046     		mov	r0, r4
 549 01ca FFF7FEFF 		bl	uxQueueMessagesWaiting
 550 01ce 0228     		cmp	r0, #2
 551 01d0 01D0     		beq	.L67
 344:../FreeRTOS/Demo/Common/Minimal/GenQTest.c **** 			xErrorDetected = pdTRUE;
 552              		.loc 1 344 0
 553 01d2 0121     		movs	r1, #1
 554 01d4 2960     		str	r1, [r5, #0]
 555              	.L67:
 349:../FreeRTOS/Demo/Common/Minimal/GenQTest.c **** 		for( ulData = 9; ulData >= 7; ulData-- )
 556              		.loc 1 349 0
 557 01d6 0922     		movs	r2, #9
 558 01d8 0092     		str	r2, [sp, #0]
 351:../FreeRTOS/Demo/Common/Minimal/GenQTest.c **** 			if( xQueueSendToFront( xQueue, ( void * ) &ulData, genqNO_BLOCK ) != pdPASS )
 559              		.loc 1 351 0
 560 01da 0126     		movs	r6, #1
 561              	.L59:
 562 01dc 0123     		movs	r3, #1
 563 01de 0022     		movs	r2, #0
 564 01e0 2046     		mov	r0, r4
 565 01e2 6946     		mov	r1, sp
 566 01e4 FFF7FEFF 		bl	xQueueGenericSend
 349:../FreeRTOS/Demo/Common/Minimal/GenQTest.c **** 		for( ulData = 9; ulData >= 7; ulData-- )
 567              		.loc 1 349 0
 568 01e8 009B     		ldr	r3, [sp, #0]
 351:../FreeRTOS/Demo/Common/Minimal/GenQTest.c **** 			if( xQueueSendToFront( xQueue, ( void * ) &ulData, genqNO_BLOCK ) != pdPASS )
 569              		.loc 1 351 0
 570 01ea 0128     		cmp	r0, #1
 349:../FreeRTOS/Demo/Common/Minimal/GenQTest.c **** 		for( ulData = 9; ulData >= 7; ulData-- )
 571              		.loc 1 349 0
 572 01ec 03F1FF37 		add	r7, r3, #-1
 573              	.LVL11:
 353:../FreeRTOS/Demo/Common/Minimal/GenQTest.c **** 				xErrorDetected = pdTRUE;
 574              		.loc 1 353 0
 575 01f0 18BF     		it	ne
 576 01f2 2E60     		strne	r6, [r5, #0]
 349:../FreeRTOS/Demo/Common/Minimal/GenQTest.c **** 		for( ulData = 9; ulData >= 7; ulData-- )
 577              		.loc 1 349 0
 578 01f4 062F     		cmp	r7, #6
 579              	.LVL12:
 580 01f6 0097     		str	r7, [sp, #0]
 581 01f8 F0D8     		bhi	.L59
 359:../FreeRTOS/Demo/Common/Minimal/GenQTest.c **** 		if( uxQueueMessagesWaiting( xQueue ) != 5 )
 582              		.loc 1 359 0
 583 01fa 2046     		mov	r0, r4
 584 01fc FFF7FEFF 		bl	uxQueueMessagesWaiting
 585 0200 0528     		cmp	r0, #5
 586 0202 01D0     		beq	.L49
 361:../FreeRTOS/Demo/Common/Minimal/GenQTest.c **** 			xErrorDetected = pdTRUE;
 587              		.loc 1 361 0
 588 0204 0126     		movs	r6, #1
 589 0206 2E60     		str	r6, [r5, #0]
 590              	.L49:
 364:../FreeRTOS/Demo/Common/Minimal/GenQTest.c **** 		if( xQueueSendToFront( xQueue, ( void * ) &ulData, genqNO_BLOCK ) != errQUEUE_FULL )
 591              		.loc 1 364 0
 592 0208 2046     		mov	r0, r4
 593 020a 6946     		mov	r1, sp
 594 020c 0022     		movs	r2, #0
 595 020e 0123     		movs	r3, #1
 596 0210 FFF7FEFF 		bl	xQueueGenericSend
 597 0214 08B1     		cbz	r0, .L50
 366:../FreeRTOS/Demo/Common/Minimal/GenQTest.c **** 			xErrorDetected = pdTRUE;
 598              		.loc 1 366 0
 599 0216 0120     		movs	r0, #1
 600 0218 2860     		str	r0, [r5, #0]
 601              	.L50:
 369:../FreeRTOS/Demo/Common/Minimal/GenQTest.c **** 		if( xQueueSendToBack( xQueue, ( void * ) &ulData, genqNO_BLOCK ) != errQUEUE_FULL )
 602              		.loc 1 369 0
 603 021a 0022     		movs	r2, #0
 604 021c 2046     		mov	r0, r4
 605 021e 6946     		mov	r1, sp
 606 0220 1346     		mov	r3, r2
 607 0222 FFF7FEFF 		bl	xQueueGenericSend
 608 0226 08B1     		cbz	r0, .L68
 371:../FreeRTOS/Demo/Common/Minimal/GenQTest.c **** 			xErrorDetected = pdTRUE;
 609              		.loc 1 371 0
 610 0228 0121     		movs	r1, #1
 611 022a 2960     		str	r1, [r5, #0]
 612              	.L68:
 379:../FreeRTOS/Demo/Common/Minimal/GenQTest.c **** 		for( ulData = 7; ulData < ( 7 + genqQUEUE_LENGTH ); ulData++ )
 613              		.loc 1 379 0
 614 022c 0722     		movs	r2, #7
 615 022e 0092     		str	r2, [sp, #0]
 616              	.LVL13:
 383:../FreeRTOS/Demo/Common/Minimal/GenQTest.c **** 				xErrorDetected = pdTRUE;
 617              		.loc 1 383 0
 618 0230 0126     		movs	r6, #1
 619              	.L58:
 381:../FreeRTOS/Demo/Common/Minimal/GenQTest.c **** 			if( xQueueReceive( xQueue, &ulData2, genqNO_BLOCK ) != pdPASS )
 620              		.loc 1 381 0
 621 0232 0022     		movs	r2, #0
 622 0234 01A9     		add	r1, sp, #4
 623 0236 1346     		mov	r3, r2
 624 0238 2046     		mov	r0, r4
 625 023a FFF7FEFF 		bl	xQueueGenericReceive
 386:../FreeRTOS/Demo/Common/Minimal/GenQTest.c **** 			if( ulData != ulData2 )
 626              		.loc 1 386 0
 627 023e 0099     		ldr	r1, [sp, #0]
 628 0240 019B     		ldr	r3, [sp, #4]
 379:../FreeRTOS/Demo/Common/Minimal/GenQTest.c **** 		for( ulData = 7; ulData < ( 7 + genqQUEUE_LENGTH ); ulData++ )
 629              		.loc 1 379 0
 630 0242 4F1C     		adds	r7, r1, #1
 381:../FreeRTOS/Demo/Common/Minimal/GenQTest.c **** 			if( xQueueReceive( xQueue, &ulData2, genqNO_BLOCK ) != pdPASS )
 631              		.loc 1 381 0
 632 0244 0128     		cmp	r0, #1
 383:../FreeRTOS/Demo/Common/Minimal/GenQTest.c **** 				xErrorDetected = pdTRUE;
 633              		.loc 1 383 0
 634 0246 18BF     		it	ne
 635 0248 2E60     		strne	r6, [r5, #0]
 386:../FreeRTOS/Demo/Common/Minimal/GenQTest.c **** 			if( ulData != ulData2 )
 636              		.loc 1 386 0
 637 024a 9942     		cmp	r1, r3
 388:../FreeRTOS/Demo/Common/Minimal/GenQTest.c **** 				xErrorDetected = pdTRUE;
 638              		.loc 1 388 0
 639 024c 18BF     		it	ne
 640 024e 2E60     		strne	r6, [r5, #0]
 379:../FreeRTOS/Demo/Common/Minimal/GenQTest.c **** 		for( ulData = 7; ulData < ( 7 + genqQUEUE_LENGTH ); ulData++ )
 641              		.loc 1 379 0
 642 0250 0B2F     		cmp	r7, #11
 643 0252 0097     		str	r7, [sp, #0]
 644 0254 EDD9     		bls	.L58
 392:../FreeRTOS/Demo/Common/Minimal/GenQTest.c **** 		if( uxQueueMessagesWaiting( xQueue ) != 0 )
 645              		.loc 1 392 0
 646 0256 2046     		mov	r0, r4
 647 0258 FFF7FEFF 		bl	uxQueueMessagesWaiting
 648 025c 08B1     		cbz	r0, .L56
 394:../FreeRTOS/Demo/Common/Minimal/GenQTest.c **** 			xErrorDetected = pdTRUE;
 649              		.loc 1 394 0
 650 025e 0126     		movs	r6, #1
 651 0260 2E60     		str	r6, [r5, #0]
 652              	.L56:
 397:../FreeRTOS/Demo/Common/Minimal/GenQTest.c **** 		ulLoopCounter++;
 653              		.loc 1 397 0
 654 0262 D8F80020 		ldr	r2, [r8, #0]
 655 0266 501C     		adds	r0, r2, #1
 656 0268 C8F80000 		str	r0, [r8, #0]
 398:../FreeRTOS/Demo/Common/Minimal/GenQTest.c **** 	}
 657              		.loc 1 398 0
 658 026c DAE6     		b	.L57
 659              	.L35:
 291:../FreeRTOS/Demo/Common/Minimal/GenQTest.c **** 		for( ulData = 0; ulData < genqQUEUE_LENGTH; ulData++ )
 660              		.loc 1 291 0
 661 026e 0090     		str	r0, [sp, #0]
 662 0270 66E7     		b	.L41
 663              		.cfi_endproc
 664              	.LFE1:
 666 0272 00BF     		.section	.text.vStartGenericQueueTasks,"ax",%progbits
 667              		.align	2
 668              		.global	vStartGenericQueueTasks
 669              		.thumb
 670              		.thumb_func
 672              	vStartGenericQueueTasks:
 673              	.LFB0:
 133:../FreeRTOS/Demo/Common/Minimal/GenQTest.c **** {
 674              		.loc 1 133 0
 675              		.cfi_startproc
 676              		@ args = 0, pretend = 0, frame = 0
 677              		@ frame_needed = 0, uses_anonymous_args = 0
 678              	.LVL14:
 679 0000 F0B5     		push	{r4, r5, r6, r7, lr}
 680              	.LCFI5:
 681              		.cfi_def_cfa_offset 20
 682              		.cfi_offset 14, -4
 683              		.cfi_offset 7, -8
 684              		.cfi_offset 6, -12
 685              		.cfi_offset 5, -16
 686              		.cfi_offset 4, -20
 139:../FreeRTOS/Demo/Common/Minimal/GenQTest.c **** 	xQueue = xQueueCreate( genqQUEUE_LENGTH, sizeof( unsigned portLONG ) );
 687              		.loc 1 139 0
 688 0002 0421     		movs	r1, #4
 133:../FreeRTOS/Demo/Common/Minimal/GenQTest.c **** {
 689              		.loc 1 133 0
 690 0004 85B0     		sub	sp, sp, #20
 691              	.LCFI6:
 692              		.cfi_def_cfa_offset 40
 133:../FreeRTOS/Demo/Common/Minimal/GenQTest.c **** {
 693              		.loc 1 133 0
 694 0006 0746     		mov	r7, r0
 139:../FreeRTOS/Demo/Common/Minimal/GenQTest.c **** 	xQueue = xQueueCreate( genqQUEUE_LENGTH, sizeof( unsigned portLONG ) );
 695              		.loc 1 139 0
 696 0008 0022     		movs	r2, #0
 697 000a 0520     		movs	r0, #5
 698              	.LVL15:
 699 000c FFF7FEFF 		bl	xQueueGenericCreate
 152:../FreeRTOS/Demo/Common/Minimal/GenQTest.c **** 	xTaskCreate( prvSendFrontAndBackTest, ( signed portCHAR * )"GenQ", configMINIMAL_STACK_SIZE, ( voi
 700              		.loc 1 152 0
 701 0010 40F20001 		movw	r1, #:lower16:.LC0
 139:../FreeRTOS/Demo/Common/Minimal/GenQTest.c **** 	xQueue = xQueueCreate( genqQUEUE_LENGTH, sizeof( unsigned portLONG ) );
 702              		.loc 1 139 0
 703 0014 0346     		mov	r3, r0
 704              	.LVL16:
 152:../FreeRTOS/Demo/Common/Minimal/GenQTest.c **** 	xTaskCreate( prvSendFrontAndBackTest, ( signed portCHAR * )"GenQ", configMINIMAL_STACK_SIZE, ( voi
 705              		.loc 1 152 0
 706 0016 40F20000 		movw	r0, #:lower16:prvSendFrontAndBackTest
 707              	.LVL17:
 708 001a 0024     		movs	r4, #0
 709 001c 7822     		movs	r2, #120
 710 001e C0F20001 		movt	r1, #:upper16:.LC0
 711 0022 C0F20000 		movt	r0, #:upper16:prvSendFrontAndBackTest
 712 0026 0097     		str	r7, [sp, #0]
 713 0028 0194     		str	r4, [sp, #4]
 714 002a 0294     		str	r4, [sp, #8]
 715 002c 0394     		str	r4, [sp, #12]
 716 002e FFF7FEFF 		bl	xTaskGenericCreate
 717              	.LVL18:
 155:../FreeRTOS/Demo/Common/Minimal/GenQTest.c **** 	xMutex = xSemaphoreCreateMutex();
 718              		.loc 1 155 0
 719 0032 0120     		movs	r0, #1
 720 0034 FFF7FEFF 		bl	xQueueCreateMutex
 168:../FreeRTOS/Demo/Common/Minimal/GenQTest.c **** 	xTaskCreate( prvLowPriorityMutexTask, ( signed portCHAR * )"MuLow", configMINIMAL_STACK_SIZE, ( vo
 721              		.loc 1 168 0
 722 0038 40F20001 		movw	r1, #:lower16:.LC1
 155:../FreeRTOS/Demo/Common/Minimal/GenQTest.c **** 	xMutex = xSemaphoreCreateMutex();
 723              		.loc 1 155 0
 724 003c 0546     		mov	r5, r0
 725              	.LVL19:
 168:../FreeRTOS/Demo/Common/Minimal/GenQTest.c **** 	xTaskCreate( prvLowPriorityMutexTask, ( signed portCHAR * )"MuLow", configMINIMAL_STACK_SIZE, ( vo
 726              		.loc 1 168 0
 727 003e 40F20000 		movw	r0, #:lower16:prvLowPriorityMutexTask
 728              	.LVL20:
 729 0042 7822     		movs	r2, #120
 730 0044 2B46     		mov	r3, r5
 731 0046 C0F20001 		movt	r1, #:upper16:.LC1
 732 004a C0F20000 		movt	r0, #:upper16:prvLowPriorityMutexTask
 733 004e 0094     		str	r4, [sp, #0]
 734 0050 0194     		str	r4, [sp, #4]
 735 0052 0294     		str	r4, [sp, #8]
 736 0054 0394     		str	r4, [sp, #12]
 169:../FreeRTOS/Demo/Common/Minimal/GenQTest.c **** 	xTaskCreate( prvMediumPriorityMutexTask, ( signed portCHAR * )"MuMed", configMINIMAL_STACK_SIZE, N
 737              		.loc 1 169 0
 738 0056 40F20006 		movw	r6, #:lower16:.LANCHOR3
 168:../FreeRTOS/Demo/Common/Minimal/GenQTest.c **** 	xTaskCreate( prvLowPriorityMutexTask, ( signed portCHAR * )"MuLow", configMINIMAL_STACK_SIZE, ( vo
 739              		.loc 1 168 0
 740 005a FFF7FEFF 		bl	xTaskGenericCreate
 169:../FreeRTOS/Demo/Common/Minimal/GenQTest.c **** 	xTaskCreate( prvMediumPriorityMutexTask, ( signed portCHAR * )"MuMed", configMINIMAL_STACK_SIZE, N
 741              		.loc 1 169 0
 742 005e 40F20000 		movw	r0, #:lower16:prvMediumPriorityMutexTask
 743 0062 40F20001 		movw	r1, #:lower16:.LC2
 744 0066 7822     		movs	r2, #120
 745 0068 2346     		mov	r3, r4
 746 006a C0F20006 		movt	r6, #:upper16:.LANCHOR3
 747 006e C0F20001 		movt	r1, #:upper16:.LC2
 748 0072 0227     		movs	r7, #2
 749              	.LVL21:
 750 0074 C0F20000 		movt	r0, #:upper16:prvMediumPriorityMutexTask
 751 0078 0196     		str	r6, [sp, #4]
 752 007a 0097     		str	r7, [sp, #0]
 753 007c 0294     		str	r4, [sp, #8]
 754 007e 0394     		str	r4, [sp, #12]
 170:../FreeRTOS/Demo/Common/Minimal/GenQTest.c **** 	xTaskCreate( prvHighPriorityMutexTask, ( signed portCHAR * )"MuHigh", configMINIMAL_STACK_SIZE, ( 
 755              		.loc 1 170 0
 756 0080 40F20006 		movw	r6, #:lower16:.LANCHOR2
 169:../FreeRTOS/Demo/Common/Minimal/GenQTest.c **** 	xTaskCreate( prvMediumPriorityMutexTask, ( signed portCHAR * )"MuMed", configMINIMAL_STACK_SIZE, N
 757              		.loc 1 169 0
 758 0084 FFF7FEFF 		bl	xTaskGenericCreate
 170:../FreeRTOS/Demo/Common/Minimal/GenQTest.c **** 	xTaskCreate( prvHighPriorityMutexTask, ( signed portCHAR * )"MuHigh", configMINIMAL_STACK_SIZE, ( 
 759              		.loc 1 170 0
 760 0088 40F20000 		movw	r0, #:lower16:prvHighPriorityMutexTask
 761 008c 40F20001 		movw	r1, #:lower16:.LC3
 762 0090 C0F20006 		movt	r6, #:upper16:.LANCHOR2
 763 0094 2B46     		mov	r3, r5
 764 0096 C0F20001 		movt	r1, #:upper16:.LC3
 765 009a 0325     		movs	r5, #3
 766              	.LVL22:
 767 009c 7822     		movs	r2, #120
 768 009e C0F20000 		movt	r0, #:upper16:prvHighPriorityMutexTask
 769 00a2 8DE86000 		stmia	sp, {r5, r6}
 770 00a6 0294     		str	r4, [sp, #8]
 771 00a8 0394     		str	r4, [sp, #12]
 772 00aa FFF7FEFF 		bl	xTaskGenericCreate
 773              	.LVL23:
 171:../FreeRTOS/Demo/Common/Minimal/GenQTest.c **** }
 774              		.loc 1 171 0
 775 00ae 05B0     		add	sp, sp, #20
 776 00b0 F0BD     		pop	{r4, r5, r6, r7, pc}
 777              		.cfi_endproc
 778              	.LFE0:
 780 00b2 00BF     		.section	.text.xAreGenericQueueTasksStillRunning,"ax",%progbits
 781              		.align	2
 782              		.global	xAreGenericQueueTasksStillRunning
 783              		.thumb
 784              		.thumb_func
 786              	xAreGenericQueueTasksStillRunning:
 787              	.LFB5:
 541:../FreeRTOS/Demo/Common/Minimal/GenQTest.c **** 		}		
 542:../FreeRTOS/Demo/Common/Minimal/GenQTest.c **** 	}
 543:../FreeRTOS/Demo/Common/Minimal/GenQTest.c **** }
 544:../FreeRTOS/Demo/Common/Minimal/GenQTest.c **** /*-----------------------------------------------------------*/
 545:../FreeRTOS/Demo/Common/Minimal/GenQTest.c **** 
 546:../FreeRTOS/Demo/Common/Minimal/GenQTest.c **** /* This is called to check that all the created tasks are still running. */
 547:../FreeRTOS/Demo/Common/Minimal/GenQTest.c **** portBASE_TYPE xAreGenericQueueTasksStillRunning( void )
 548:../FreeRTOS/Demo/Common/Minimal/GenQTest.c **** {
 788              		.loc 1 548 0
 789              		.cfi_startproc
 790              		@ args = 0, pretend = 0, frame = 0
 791              		@ frame_needed = 0, uses_anonymous_args = 0
 792              		@ link register save eliminated.
 793 0000 70B4     		push	{r4, r5, r6}
 794              	.LCFI7:
 795              		.cfi_def_cfa_offset 12
 796              		.cfi_offset 6, -4
 797              		.cfi_offset 5, -8
 798              		.cfi_offset 4, -12
 549:../FreeRTOS/Demo/Common/Minimal/GenQTest.c **** static unsigned portLONG ulLastLoopCounter = 0, ulLastLoopCounter2 = 0;
 550:../FreeRTOS/Demo/Common/Minimal/GenQTest.c **** 
 551:../FreeRTOS/Demo/Common/Minimal/GenQTest.c **** 	/* If the demo task is still running then we expect the loopcounters to
 552:../FreeRTOS/Demo/Common/Minimal/GenQTest.c **** 	have incremented since this function was last called. */
 553:../FreeRTOS/Demo/Common/Minimal/GenQTest.c **** 	if( ulLastLoopCounter == ulLoopCounter )
 799              		.loc 1 553 0
 800 0002 40F20002 		movw	r2, #:lower16:.LANCHOR6
 801 0006 40F20004 		movw	r4, #:lower16:.LANCHOR5
 802 000a C0F20004 		movt	r4, #:upper16:.LANCHOR5
 803 000e C0F20002 		movt	r2, #:upper16:.LANCHOR6
 804 0012 2368     		ldr	r3, [r4, #0]
 805 0014 1168     		ldr	r1, [r2, #0]
 554:../FreeRTOS/Demo/Common/Minimal/GenQTest.c **** 	{
 555:../FreeRTOS/Demo/Common/Minimal/GenQTest.c **** 		xErrorDetected = pdTRUE;
 806              		.loc 1 555 0
 807 0016 40F20000 		movw	r0, #:lower16:.LANCHOR1
 553:../FreeRTOS/Demo/Common/Minimal/GenQTest.c **** 	if( ulLastLoopCounter == ulLoopCounter )
 808              		.loc 1 553 0
 809 001a 9942     		cmp	r1, r3
 810              		.loc 1 555 0
 811 001c C0F20000 		movt	r0, #:upper16:.LANCHOR1
 553:../FreeRTOS/Demo/Common/Minimal/GenQTest.c **** 	if( ulLastLoopCounter == ulLoopCounter )
 812              		.loc 1 553 0
 813 0020 1AD0     		beq	.L75
 814              	.L71:
 556:../FreeRTOS/Demo/Common/Minimal/GenQTest.c **** 	}
 557:../FreeRTOS/Demo/Common/Minimal/GenQTest.c **** 
 558:../FreeRTOS/Demo/Common/Minimal/GenQTest.c **** 	if( ulLastLoopCounter2 == ulLoopCounter2 )
 815              		.loc 1 558 0
 816 0022 40F20001 		movw	r1, #:lower16:.LANCHOR4
 817 0026 40F20003 		movw	r3, #:lower16:.LANCHOR7
 818 002a C0F20001 		movt	r1, #:upper16:.LANCHOR4
 819 002e C0F20003 		movt	r3, #:upper16:.LANCHOR7
 820 0032 0D68     		ldr	r5, [r1, #0]
 821 0034 1E68     		ldr	r6, [r3, #0]
 822 0036 AE42     		cmp	r6, r5
 823 0038 0AD0     		beq	.L72
 824 003a 0068     		ldr	r0, [r0, #0]
 825 003c D0F10100 		rsbs	r0, r0, #1
 826 0040 38BF     		it	cc
 827 0042 0020     		movcc	r0, #0
 828              	.L73:
 559:../FreeRTOS/Demo/Common/Minimal/GenQTest.c **** 	{
 560:../FreeRTOS/Demo/Common/Minimal/GenQTest.c **** 		xErrorDetected = pdTRUE;
 561:../FreeRTOS/Demo/Common/Minimal/GenQTest.c **** 	}
 562:../FreeRTOS/Demo/Common/Minimal/GenQTest.c **** 
 563:../FreeRTOS/Demo/Common/Minimal/GenQTest.c **** 	ulLastLoopCounter = ulLoopCounter;
 829              		.loc 1 563 0
 830 0044 2468     		ldr	r4, [r4, #0]
 564:../FreeRTOS/Demo/Common/Minimal/GenQTest.c **** 	ulLastLoopCounter2 = ulLoopCounter2;	
 831              		.loc 1 564 0
 832 0046 0968     		ldr	r1, [r1, #0]
 563:../FreeRTOS/Demo/Common/Minimal/GenQTest.c **** 	ulLastLoopCounter = ulLoopCounter;
 833              		.loc 1 563 0
 834 0048 1460     		str	r4, [r2, #0]
 835              		.loc 1 564 0
 836 004a 1960     		str	r1, [r3, #0]
 565:../FreeRTOS/Demo/Common/Minimal/GenQTest.c **** 
 566:../FreeRTOS/Demo/Common/Minimal/GenQTest.c **** 	/* Errors detected in the task itself will have latched xErrorDetected
 567:../FreeRTOS/Demo/Common/Minimal/GenQTest.c **** 	to true. */
 568:../FreeRTOS/Demo/Common/Minimal/GenQTest.c **** 
 569:../FreeRTOS/Demo/Common/Minimal/GenQTest.c **** 	return !xErrorDetected;
 570:../FreeRTOS/Demo/Common/Minimal/GenQTest.c **** }
 837              		.loc 1 570 0
 838 004c 70BC     		pop	{r4, r5, r6}
 839 004e 7047     		bx	lr
 840              	.L72:
 560:../FreeRTOS/Demo/Common/Minimal/GenQTest.c **** 		xErrorDetected = pdTRUE;
 841              		.loc 1 560 0
 842 0050 0125     		movs	r5, #1
 843 0052 0560     		str	r5, [r0, #0]
 844 0054 0020     		movs	r0, #0
 845 0056 F5E7     		b	.L73
 846              	.L75:
 555:../FreeRTOS/Demo/Common/Minimal/GenQTest.c **** 		xErrorDetected = pdTRUE;
 847              		.loc 1 555 0
 848 0058 0125     		movs	r5, #1
 849 005a 0560     		str	r5, [r0, #0]
 850 005c E1E7     		b	.L71
 851              		.cfi_endproc
 852              	.LFE5:
 854 005e 00BF     		.section	.bss.ulLoopCounter2,"aw",%nobits
 855              		.align	2
 856              		.set	.LANCHOR4,. + 0
 859              	ulLoopCounter2:
 860 0000 00000000 		.space	4
 861              		.section	.bss.xHighPriorityMutexTask,"aw",%nobits
 862              		.align	2
 863              		.set	.LANCHOR2,. + 0
 866              	xHighPriorityMutexTask:
 867 0000 00000000 		.space	4
 868              		.section	.bss.ulGuardedVariable,"aw",%nobits
 869              		.align	2
 870              		.set	.LANCHOR0,. + 0
 873              	ulGuardedVariable:
 874 0000 00000000 		.space	4
 875              		.section	.bss.xMediumPriorityMutexTask,"aw",%nobits
 876              		.align	2
 877              		.set	.LANCHOR3,. + 0
 880              	xMediumPriorityMutexTask:
 881 0000 00000000 		.space	4
 882              		.section	.rodata.str1.4,"aMS",%progbits,1
 883              		.align	2
 884              	.LC0:
 885 0000 47656E51 		.ascii	"GenQ\000"
 885      00
 886 0005 000000   		.space	3
 887              	.LC1:
 888 0008 4D754C6F 		.ascii	"MuLow\000"
 888      7700
 889 000e 0000     		.space	2
 890              	.LC2:
 891 0010 4D754D65 		.ascii	"MuMed\000"
 891      6400
 892 0016 0000     		.space	2
 893              	.LC3:
 894 0018 4D754869 		.ascii	"MuHigh\000"
 894      676800
 895 001f 00       		.section	.bss.ulLastLoopCounter2.4818,"aw",%nobits
 896              		.align	2
 897              		.set	.LANCHOR7,. + 0
 900              	ulLastLoopCounter2.4818:
 901 0000 00000000 		.space	4
 902              		.section	.bss.xErrorDetected,"aw",%nobits
 903              		.align	2
 904              		.set	.LANCHOR1,. + 0
 907              	xErrorDetected:
 908 0000 00000000 		.space	4
 909              		.section	.bss.ulLoopCounter,"aw",%nobits
 910              		.align	2
 911              		.set	.LANCHOR5,. + 0
 914              	ulLoopCounter:
 915 0000 00000000 		.space	4
 916              		.section	.bss.ulLastLoopCounter.4817,"aw",%nobits
 917              		.align	2
 918              		.set	.LANCHOR6,. + 0
 921              	ulLastLoopCounter.4817:
 922 0000 00000000 		.space	4
 923              		.text
 924              	.Letext0:
 925              		.file 2 "../FreeRTOS/Source/include/../../Source/portable/GCC/ARM_CM3/portmacro.h"
 926              		.file 3 "../FreeRTOS/Source/include/task.h"
 927              		.file 4 "../FreeRTOS/Source/include/queue.h"
 928              		.file 5 "../FreeRTOS/Source/include/semphr.h"