   1              		.syntax unified
   2              		.cpu cortex-m3
   3              		.fpu softvfp
   4              		.eabi_attribute 20, 1
   5              		.eabi_attribute 21, 1
   6              		.eabi_attribute 23, 3
   7              		.eabi_attribute 24, 1
   8              		.eabi_attribute 25, 1
   9              		.eabi_attribute 26, 1
  10              		.eabi_attribute 30, 2
  11              		.eabi_attribute 34, 1
  12              		.eabi_attribute 18, 4
  13              		.thumb
  14              		.file	"main.c"
  15              		.text
  16              	.Ltext0:
  17              		.cfi_sections	.debug_frame
  18              		.section	.text.vTaskLED2,"ax",%progbits
  19              		.align	2
  20              		.global	vTaskLED2
  21              		.thumb
  22              		.thumb_func
  24              	vTaskLED2:
  25              	.LFB56:
  26              		.file 1 "./src/main.c"
   1:./src/main.c  **** /* Standard includes. */
   2:./src/main.c  **** #include "stm32f10x.h"
   3:./src/main.c  **** #include "stm32f10x_conf.h"
   4:./src/main.c  **** #include "FreeRTOS.h"
   5:./src/main.c  **** #include "task.h"
   6:./src/main.c  **** 
   7:./src/main.c  **** 
   8:./src/main.c  **** //--------------------------------------------------------------
   9:./src/main.c  **** 
  10:./src/main.c  **** void vTaskLED1(void *pvParameters) {
  11:./src/main.c  **** 
  12:./src/main.c  **** 	for (;;) {
  13:./src/main.c  **** 		GPIO_SetBits(GPIOF, GPIO_Pin_6);
  14:./src/main.c  **** 		vTaskDelay(500);
  15:./src/main.c  **** 		GPIO_ResetBits(GPIOF, GPIO_Pin_6);
  16:./src/main.c  **** 		vTaskDelay(500);
  17:./src/main.c  **** 	}
  18:./src/main.c  **** 
  19:./src/main.c  **** }
  20:./src/main.c  **** 
  21:./src/main.c  **** void vTaskLED2(void *pvParameters) {
  27              		.loc 1 21 0
  28              		.cfi_startproc
  29              		@ args = 0, pretend = 0, frame = 0
  30              		@ frame_needed = 0, uses_anonymous_args = 0
  31              	.LVL0:
  32 0000 08B5     		push	{r3, lr}
  33              	.LCFI0:
  34              		.cfi_def_cfa_offset 8
  35              		.cfi_offset 14, -4
  36              		.cfi_offset 3, -8
  37              	.LVL1:
  38              	.L2:
  22:./src/main.c  **** 
  23:./src/main.c  **** 	for (;;) {
  24:./src/main.c  **** 		GPIO_SetBits(GPIOF, GPIO_Pin_7);
  39              		.loc 1 24 0 discriminator 1
  40 0002 4FF4E050 		mov	r0, #7168
  41 0006 8021     		movs	r1, #128
  42 0008 C4F20100 		movt	r0, 16385
  43 000c FFF7FEFF 		bl	GPIO_SetBits
  25:./src/main.c  **** 		vTaskDelay(321);
  44              		.loc 1 25 0 discriminator 1
  45 0010 40F24110 		movw	r0, #321
  46 0014 FFF7FEFF 		bl	vTaskDelay
  26:./src/main.c  **** 		GPIO_ResetBits(GPIOF, GPIO_Pin_7);
  47              		.loc 1 26 0 discriminator 1
  48 0018 4FF4E050 		mov	r0, #7168
  49 001c C4F20100 		movt	r0, 16385
  50 0020 8021     		movs	r1, #128
  51 0022 FFF7FEFF 		bl	GPIO_ResetBits
  27:./src/main.c  **** 		vTaskDelay(321);
  52              		.loc 1 27 0 discriminator 1
  53 0026 40F24110 		movw	r0, #321
  54 002a FFF7FEFF 		bl	vTaskDelay
  55 002e E8E7     		b	.L2
  56              		.cfi_endproc
  57              	.LFE56:
  59              		.section	.text.vTaskLED1,"ax",%progbits
  60              		.align	2
  61              		.global	vTaskLED1
  62              		.thumb
  63              		.thumb_func
  65              	vTaskLED1:
  66              	.LFB55:
  10:./src/main.c  **** void vTaskLED1(void *pvParameters) {
  67              		.loc 1 10 0
  68              		.cfi_startproc
  69              		@ args = 0, pretend = 0, frame = 0
  70              		@ frame_needed = 0, uses_anonymous_args = 0
  71              	.LVL2:
  72 0000 08B5     		push	{r3, lr}
  73              	.LCFI1:
  74              		.cfi_def_cfa_offset 8
  75              		.cfi_offset 14, -4
  76              		.cfi_offset 3, -8
  77              	.LVL3:
  78              	.L5:
  13:./src/main.c  **** 		GPIO_SetBits(GPIOF, GPIO_Pin_6);
  79              		.loc 1 13 0 discriminator 1
  80 0002 4FF4E050 		mov	r0, #7168
  81 0006 4021     		movs	r1, #64
  82 0008 C4F20100 		movt	r0, 16385
  83 000c FFF7FEFF 		bl	GPIO_SetBits
  14:./src/main.c  **** 		vTaskDelay(500);
  84              		.loc 1 14 0 discriminator 1
  85 0010 4FF4FA70 		mov	r0, #500
  86 0014 FFF7FEFF 		bl	vTaskDelay
  15:./src/main.c  **** 		GPIO_ResetBits(GPIOF, GPIO_Pin_6);
  87              		.loc 1 15 0 discriminator 1
  88 0018 4FF4E050 		mov	r0, #7168
  89 001c C4F20100 		movt	r0, 16385
  90 0020 4021     		movs	r1, #64
  91 0022 FFF7FEFF 		bl	GPIO_ResetBits
  16:./src/main.c  **** 		vTaskDelay(500);
  92              		.loc 1 16 0 discriminator 1
  93 0026 4FF4FA70 		mov	r0, #500
  94 002a FFF7FEFF 		bl	vTaskDelay
  95 002e E8E7     		b	.L5
  96              		.cfi_endproc
  97              	.LFE55:
  99              		.section	.text.startup.main,"ax",%progbits
 100              		.align	2
 101              		.global	main
 102              		.thumb
 103              		.thumb_func
 105              	main:
 106              	.LFB57:
  28:./src/main.c  **** 	}
  29:./src/main.c  **** 
  30:./src/main.c  **** }
  31:./src/main.c  **** 
  32:./src/main.c  **** 
  33:./src/main.c  **** //--------------------------------------------------------------
  34:./src/main.c  **** int main(void) {
 107              		.loc 1 34 0
 108              		.cfi_startproc
 109              		@ args = 0, pretend = 0, frame = 8
 110              		@ frame_needed = 0, uses_anonymous_args = 0
 111 0000 30B5     		push	{r4, r5, lr}
 112              	.LCFI2:
 113              		.cfi_def_cfa_offset 12
 114              		.cfi_offset 14, -4
 115              		.cfi_offset 5, -8
 116              		.cfi_offset 4, -12
  35:./src/main.c  **** 
  36:./src/main.c  **** 	GPIO_InitTypeDef GPIO_InitStructure;
  37:./src/main.c  **** 
  38:./src/main.c  **** 	RCC_APB2PeriphClockCmd(RCC_APB2Periph_GPIOF, ENABLE);
 117              		.loc 1 38 0
 118 0002 8020     		movs	r0, #128
  34:./src/main.c  **** int main(void) {
 119              		.loc 1 34 0
 120 0004 87B0     		sub	sp, sp, #28
 121              	.LCFI3:
 122              		.cfi_def_cfa_offset 40
 123              		.loc 1 38 0
 124 0006 0121     		movs	r1, #1
 125 0008 FFF7FEFF 		bl	RCC_APB2PeriphClockCmd
  39:./src/main.c  **** 	/**
  40:./src/main.c  **** 	 *  LED1 -> PF6 , LED2 -> PF7 , LED3 -> PF8 , LED4 -> PF9
  41:./src/main.c  **** 	 */
  42:./src/main.c  **** 	GPIO_InitStructure.GPIO_Pin = GPIO_Pin_6 | GPIO_Pin_7 | GPIO_Pin_8
  43:./src/main.c  **** 			| GPIO_Pin_9;
  44:./src/main.c  **** 	GPIO_InitStructure.GPIO_Speed = GPIO_Speed_50MHz;
  45:./src/main.c  **** 	GPIO_InitStructure.GPIO_Mode = GPIO_Mode_Out_PP;
  46:./src/main.c  **** 	GPIO_Init(GPIOF, &GPIO_InitStructure);
 126              		.loc 1 46 0
 127 000c 4FF4E050 		mov	r0, #7168
  44:./src/main.c  **** 	GPIO_InitStructure.GPIO_Speed = GPIO_Speed_50MHz;
 128              		.loc 1 44 0
 129 0010 0322     		movs	r2, #3
  45:./src/main.c  **** 	GPIO_InitStructure.GPIO_Mode = GPIO_Mode_Out_PP;
 130              		.loc 1 45 0
 131 0012 1023     		movs	r3, #16
 132              		.loc 1 46 0
 133 0014 C4F20100 		movt	r0, 16385
 134 0018 05A9     		add	r1, sp, #20
  42:./src/main.c  **** 	GPIO_InitStructure.GPIO_Pin = GPIO_Pin_6 | GPIO_Pin_7 | GPIO_Pin_8
 135              		.loc 1 42 0
 136 001a 4FF47075 		mov	r5, #960	@ movhi
  47:./src/main.c  **** 
  48:./src/main.c  **** 	xTaskCreate( vTaskLED1, ( signed char * ) "LED1", configMINIMAL_STACK_SIZE, NULL, 2,
 137              		.loc 1 48 0
 138 001e 0024     		movs	r4, #0
  42:./src/main.c  **** 	GPIO_InitStructure.GPIO_Pin = GPIO_Pin_6 | GPIO_Pin_7 | GPIO_Pin_8
 139              		.loc 1 42 0
 140 0020 ADF81450 		strh	r5, [sp, #20]	@ movhi
  44:./src/main.c  **** 	GPIO_InitStructure.GPIO_Speed = GPIO_Speed_50MHz;
 141              		.loc 1 44 0
 142 0024 8DF81620 		strb	r2, [sp, #22]
  45:./src/main.c  **** 	GPIO_InitStructure.GPIO_Mode = GPIO_Mode_Out_PP;
 143              		.loc 1 45 0
 144 0028 8DF81730 		strb	r3, [sp, #23]
  46:./src/main.c  **** 	GPIO_Init(GPIOF, &GPIO_InitStructure);
 145              		.loc 1 46 0
 146 002c FFF7FEFF 		bl	GPIO_Init
 147              		.loc 1 48 0
 148 0030 40F20000 		movw	r0, #:lower16:vTaskLED1
 149 0034 40F20001 		movw	r1, #:lower16:.LC0
 150 0038 0225     		movs	r5, #2
 151 003a C0F20001 		movt	r1, #:upper16:.LC0
 152 003e 7822     		movs	r2, #120
 153 0040 2346     		mov	r3, r4
 154 0042 C0F20000 		movt	r0, #:upper16:vTaskLED1
 155 0046 0095     		str	r5, [sp, #0]
 156 0048 0194     		str	r4, [sp, #4]
 157 004a 0294     		str	r4, [sp, #8]
 158 004c 0394     		str	r4, [sp, #12]
 159 004e FFF7FEFF 		bl	xTaskGenericCreate
  49:./src/main.c  **** 			( xTaskHandle * ) NULL);
  50:./src/main.c  **** 	xTaskCreate( vTaskLED2, ( signed char * ) "LED2", configMINIMAL_STACK_SIZE, NULL, 2,
 160              		.loc 1 50 0
 161 0052 40F20000 		movw	r0, #:lower16:vTaskLED2
 162 0056 40F20001 		movw	r1, #:lower16:.LC1
 163 005a C0F20001 		movt	r1, #:upper16:.LC1
 164 005e 7822     		movs	r2, #120
 165 0060 2346     		mov	r3, r4
 166 0062 C0F20000 		movt	r0, #:upper16:vTaskLED2
 167 0066 0095     		str	r5, [sp, #0]
 168 0068 0194     		str	r4, [sp, #4]
 169 006a 0294     		str	r4, [sp, #8]
 170 006c 0394     		str	r4, [sp, #12]
 171 006e FFF7FEFF 		bl	xTaskGenericCreate
  51:./src/main.c  **** 			( xTaskHandle * ) NULL);
  52:./src/main.c  **** 
  53:./src/main.c  **** 	/* Start the scheduler. */
  54:./src/main.c  **** 	vTaskStartScheduler();
 172              		.loc 1 54 0
 173 0072 FFF7FEFF 		bl	vTaskStartScheduler
 174              	.L7:
 175 0076 FEE7     		b	.L7
 176              		.cfi_endproc
 177              	.LFE57:
 179              		.section	.text.vApplicationTickHook,"ax",%progbits
 180              		.align	2
 181              		.global	vApplicationTickHook
 182              		.thumb
 183              		.thumb_func
 185              	vApplicationTickHook:
 186              	.LFB58:
  55:./src/main.c  **** 
  56:./src/main.c  **** 	/* Will only get here if there was insufficient memory to create the idle
  57:./src/main.c  **** 	 task.  The idle task is created within vTaskStartScheduler(). */
  58:./src/main.c  **** 	for (;;)
  59:./src/main.c  **** 		;
  60:./src/main.c  **** }
  61:./src/main.c  **** /*-----------------------------------------------------------*/
  62:./src/main.c  **** 
  63:./src/main.c  **** void vApplicationTickHook(void) {
 187              		.loc 1 63 0
 188              		.cfi_startproc
 189              		@ args = 0, pretend = 0, frame = 0
 190              		@ frame_needed = 0, uses_anonymous_args = 0
 191              		@ link register save eliminated.
  64:./src/main.c  **** 
  65:./src/main.c  **** //	TimingDelay_Decrement();
  66:./src/main.c  **** }
 192              		.loc 1 66 0
 193 0000 7047     		bx	lr
 194              		.cfi_endproc
 195              	.LFE58:
 197 0002 00BF     		.section	.rodata.str1.4,"aMS",%progbits,1
 198              		.align	2
 199              	.LC0:
 200 0000 4C454431 		.ascii	"LED1\000"
 200      00
 201 0005 000000   		.space	3
 202              	.LC1:
 203 0008 4C454432 		.ascii	"LED2\000"
 203      00
 204 000d 000000   		.text
 205              	.Letext0:
 206              		.file 2 "/home/valentin/CodeSourcery/Sourcery_CodeBench_Lite_for_ARM_EABI/bin/../lib/gcc/arm-none-
 207              		.file 3 "../MyARMLib/STM32/STM32F10x/include/stm32f10x.h"
 208              		.file 4 "../MyARMLib/STM32/STM32F10x_StdPeriph_Driver/inc/stm32f10x_gpio.h"
 209              		.file 5 "../FreeRTOS/Source/include/task.h"
 210              		.file 6 "../MyARMLib/CMSIS/include/core_cm3.h"